	.file	"efimain.c"
	.text
.Ltext0:
	.cfi_sections	.debug_frame
	.file 0 "E://wf//src//uefi//UEFI-Tuts//src//tutorial 11" "efimain.c"
	.globl	EFI_GRAPHICS_OUTPUT_PROTOCOL_GUID
	.data
	.align 16
EFI_GRAPHICS_OUTPUT_PROTOCOL_GUID:
	.long	-1874679330
	.word	9180
	.word	19000
	.ascii "\226\373z\336\320\200Qj"
	.globl	EFI_LOADED_IMAGE_PROTOCOL_GUID
	.align 16
EFI_LOADED_IMAGE_PROTOCOL_GUID:
	.long	1528508833
	.word	-27294
	.word	4562
	.ascii "\216?\0\240\311ir;"
	.globl	EFI_SIMPLE_FILE_SYSTEM_PROTOCOL_GUID
	.align 16
EFI_SIMPLE_FILE_SYSTEM_PROTOCOL_GUID:
	.long	-1773249758
	.word	25689
	.word	4562
	.ascii "\216"
	.ascii "9\0\240\311ir;"
	.globl	EFI_DEVICE_PATH_PROTOCOL_GUID
	.align 16
EFI_DEVICE_PATH_PROTOCOL_GUID:
	.long	156724881
	.word	27967
	.word	4562
	.ascii "\216"
	.ascii "9\0\240\311ir;"
	.section .rdata,"dr"
	.align 2
.LC0:
	.ascii " \0L\0o\0a\0d\0 \0E\0r\0r\0o\0r\0\15\0\12\0\0\0"
	.align 8
.LC1:
	.ascii " \0I\0n\0v\0a\0l\0i\0d\0 \0P\0a\0r\0a\0m\0e\0t\0e\0r\0\15\0\12\0\0\0"
	.align 2
.LC2:
	.ascii " \0U\0n\0s\0u\0p\0p\0o\0r\0t\0e\0d\0\15\0\12\0\0\0"
	.align 8
.LC3:
	.ascii " \0B\0a\0d\0 \0B\0u\0f\0f\0e\0r\0 \0S\0i\0z\0e\0\15\0\12\0\0\0"
	.align 8
.LC4:
	.ascii " \0B\0u\0f\0f\0e\0r\0 \0T\0o\0o\0 \0S\0m\0a\0l\0l\0\15\0\12\0\0\0"
	.align 2
.LC5:
	.ascii " \0N\0o\0t\0 \0R\0e\0a\0d\0y\0\15\0\12\0\0\0"
	.align 8
.LC6:
	.ascii " \0D\0e\0v\0i\0c\0e\0 \0E\0r\0r\0o\0r\0\15\0\12\0\0\0"
	.align 8
.LC7:
	.ascii " \0W\0r\0i\0t\0e\0 \0P\0r\0o\0t\0e\0c\0t\0e\0d\0\15\0\12\0\0\0"
	.align 8
.LC8:
	.ascii " \0O\0u\0t\0 \0O\0f\0 \0R\0e\0s\0o\0u\0r\0c\0e\0s\0\15\0\12\0\0\0"
	.align 8
.LC9:
	.ascii " \0V\0o\0l\0u\0m\0e\0 \0C\0o\0r\0r\0u\0p\0t\0e\0d\0\15\0\12\0\0\0"
	.align 2
.LC10:
	.ascii " \0V\0o\0l\0u\0m\0e\0 \0F\0u\0l\0l\0\15\0\12\0\0\0"
	.align 2
.LC11:
	.ascii " \0N\0o\0 \0M\0e\0d\0i\0a\0\15\0\12\0\0\0"
	.align 8
.LC12:
	.ascii " \0M\0e\0d\0i\0a\0 \0C\0h\0a\0n\0g\0e\0d\0\15\0\12\0\0\0"
	.align 8
.LC13:
	.ascii " \0F\0i\0l\0e\0 \0N\0o\0t\0 \0F\0o\0u\0n\0d\0\15\0\12\0\0\0"
	.align 8
.LC14:
	.ascii " \0A\0c\0c\0e\0s\0s\0 \0D\0e\0n\0i\0e\0d\0\15\0\12\0\0\0"
	.align 2
.LC15:
	.ascii " \0N\0o\0 \0R\0e\0s\0p\0o\0n\0s\0e\0\15\0\12\0\0\0"
	.align 2
.LC16:
	.ascii " \0N\0o\0 \0M\0a\0p\0p\0i\0n\0g\0\15\0\12\0\0\0"
	.align 2
.LC17:
	.ascii " \0T\0i\0m\0e\0o\0u\0t\0\15\0\12\0\0\0"
	.align 2
.LC18:
	.ascii " \0N\0o\0t\0 \0S\0t\0a\0r\0t\0e\0d\0\15\0\12\0\0\0"
	.align 8
.LC19:
	.ascii " \0A\0l\0r\0e\0a\0d\0y\0 \0S\0t\0a\0r\0t\0e\0d\0\15\0\12\0\0\0"
	.align 2
.LC20:
	.ascii " \0A\0b\0o\0r\0t\0e\0d\0\15\0\12\0\0\0"
	.align 2
.LC21:
	.ascii " \0I\0C\0M\0P\0 \0E\0r\0r\0o\0r\0\15\0\12\0\0\0"
	.align 2
.LC22:
	.ascii " \0T\0F\0T\0P\0 \0E\0r\0r\0o\0r\0\15\0\12\0\0\0"
	.align 8
.LC23:
	.ascii " \0P\0r\0o\0t\0o\0c\0o\0l\0 \0E\0r\0r\0o\0r\0\15\0\12\0\0\0"
	.align 8
.LC24:
	.ascii " \0I\0n\0c\0o\0m\0p\0a\0t\0i\0b\0l\0e\0 \0V\0e\0r\0s\0i\0o\0n\0\15\0\12\0\0\0"
	.align 8
.LC25:
	.ascii " \0S\0e\0c\0u\0r\0i\0t\0y\0 \0V\0i\0o\0l\0a\0t\0i\0o\0n\0\15\0\12\0\0\0"
	.align 2
.LC26:
	.ascii " \0C\0R\0C\0 \0E\0r\0r\0o\0r\0\15\0\12\0\0\0"
	.align 8
.LC27:
	.ascii " \0E\0n\0d\0 \0O\0f\0 \0M\0e\0d\0i\0a\0\15\0\12\0\0\0"
	.align 2
.LC28:
	.ascii " \0E\0n\0d\0 \0O\0f\0 \0F\0i\0l\0e\0\15\0\12\0\0\0"
	.align 8
.LC29:
	.ascii " \0I\0n\0v\0a\0l\0i\0d\0 \0L\0a\0n\0g\0u\0a\0g\0e\0\15\0\12\0\0\0"
	.align 8
.LC30:
	.ascii " \0C\0o\0m\0p\0r\0o\0m\0i\0s\0e\0d\0 \0D\0a\0t\0a\0\15\0\12\0\0\0"
	.align 8
.LC31:
	.ascii " \0I\0P\0 \0A\0d\0d\0r\0e\0s\0s\0 \0C\0o\0n\0f\0l\0i\0c\0t\0\15\0\12\0\0\0"
	.align 8
.LC32:
	.ascii " \0W\0A\0R\0N\0I\0N\0G\0 \0-\0 \0U\0n\0k\0n\0o\0w\0n\0 \0G\0l\0y\0p\0h\0\15\0\12\0\0\0"
	.align 8
.LC33:
	.ascii " \0W\0A\0R\0N\0I\0N\0G\0 \0-\0 \0D\0e\0l\0e\0t\0e\0 \0F\0a\0i\0l\0u\0r\0e\0\15\0\12\0\0\0"
	.align 8
.LC34:
	.ascii " \0W\0A\0R\0N\0I\0N\0G\0 \0-\0 \0W\0r\0i\0t\0e\0 \0F\0a\0i\0l\0u\0r\0e\0\15\0\12\0\0\0"
	.align 8
.LC35:
	.ascii " \0W\0A\0R\0N\0I\0N\0G\0 \0-\0 \0B\0u\0f\0f\0e\0r\0 \0T\0o\0o\0 \0S\0m\0a\0l\0l\0\15\0\12\0\0\0"
	.align 8
.LC36:
	.ascii " \0W\0A\0R\0N\0I\0N\0G\0 \0-\0 \0S\0t\0a\0l\0e\0 \0D\0a\0t\0a\0\15\0\12\0\0\0"
	.align 8
.LC37:
	.ascii " \0W\0A\0R\0N\0I\0N\0G\0 \0-\0 \0F\0i\0l\0e\0 \0S\0y\0s\0t\0e\0m\0\15\0\12\0\0\0"
	.align 8
.LC38:
	.ascii " \0W\0A\0R\0N\0I\0N\0G\0 \0-\0 \0R\0e\0s\0e\0t\0 \0R\0e\0q\0u\0i\0r\0e\0d\0\15\0\12\0\0\0"
	.align 2
.LC39:
	.ascii " \0S\0u\0c\0c\0e\0s\0s\0f\0u\0l\0\15\0\12\0\0\0"
	.align 2
.LC40:
	.ascii " \0E\0R\0R\0O\0R\0\15\0\12\0\0\0"
	.text
	.globl	CheckStandardEFIError
	.def	CheckStandardEFIError;	.scl	2;	.type	32;	.endef
	.seh_proc	CheckStandardEFIError
CheckStandardEFIError:
.LFB0:
	.file 1 "ErrorCodes.h"
	.loc 1 54 1
	.cfi_startproc
	pushq	%rbp
	.seh_pushreg	%rbp
	.cfi_def_cfa_offset 16
	.cfi_offset 6, -16
	movq	%rsp, %rbp
	.seh_setframe	%rbp, 0
	.cfi_def_cfa_register 6
	.seh_endprologue
	movq	%rcx, 16(%rbp)
	.loc 1 55 5
	cmpq	$7, 16(%rbp)
	ja	.L2
	jmp	.L50
.L48:
	movabsq	$9223372036854775807, %rdx
	movq	16(%rbp), %rax
	addq	%rdx, %rax
	cmpq	$32, %rax
	ja	.L4
	leaq	0(,%rax,4), %rdx
	leaq	.L6(%rip), %rax
	movl	(%rdx,%rax), %eax
	cltq
	leaq	.L6(%rip), %rdx
	addq	%rdx, %rax
	jmp	*%rax
	.section .rdata,"dr"
	.align 4
.L6:
	.long	.L38-.L6
	.long	.L37-.L6
	.long	.L36-.L6
	.long	.L35-.L6
	.long	.L34-.L6
	.long	.L33-.L6
	.long	.L32-.L6
	.long	.L31-.L6
	.long	.L30-.L6
	.long	.L29-.L6
	.long	.L28-.L6
	.long	.L27-.L6
	.long	.L26-.L6
	.long	.L25-.L6
	.long	.L24-.L6
	.long	.L23-.L6
	.long	.L22-.L6
	.long	.L21-.L6
	.long	.L20-.L6
	.long	.L19-.L6
	.long	.L18-.L6
	.long	.L17-.L6
	.long	.L16-.L6
	.long	.L15-.L6
	.long	.L14-.L6
	.long	.L13-.L6
	.long	.L12-.L6
	.long	.L11-.L6
	.long	.L10-.L6
	.long	.L9-.L6
	.long	.L8-.L6
	.long	.L7-.L6
	.long	.L5-.L6
	.text
.L50:
	cmpq	$7, 16(%rbp)
	ja	.L4
	movq	16(%rbp), %rax
	leaq	0(,%rax,4), %rdx
	leaq	.L40(%rip), %rax
	movl	(%rdx,%rax), %eax
	cltq
	leaq	.L40(%rip), %rdx
	addq	%rdx, %rax
	jmp	*%rax
	.section .rdata,"dr"
	.align 4
.L40:
	.long	.L47-.L40
	.long	.L46-.L40
	.long	.L45-.L40
	.long	.L44-.L40
	.long	.L43-.L40
	.long	.L42-.L40
	.long	.L41-.L40
	.long	.L39-.L40
	.text
.L2:
	movabsq	$-9223372036854775775, %rax
	cmpq	16(%rbp), %rax
	jb	.L4
	movabsq	$-9223372036854775807, %rax
	cmpq	%rax, 16(%rbp)
	jnb	.L48
	jmp	.L4
.L38:
	.loc 1 59 20
	leaq	.LC0(%rip), %rax
	jmp	.L49
.L37:
	.loc 1 63 20
	leaq	.LC1(%rip), %rax
	jmp	.L49
.L36:
	.loc 1 67 20
	leaq	.LC2(%rip), %rax
	jmp	.L49
.L35:
	.loc 1 71 20
	leaq	.LC3(%rip), %rax
	jmp	.L49
.L34:
	.loc 1 75 20
	leaq	.LC4(%rip), %rax
	jmp	.L49
.L33:
	.loc 1 79 20
	leaq	.LC5(%rip), %rax
	jmp	.L49
.L32:
	.loc 1 83 20
	leaq	.LC6(%rip), %rax
	jmp	.L49
.L31:
	.loc 1 87 20
	leaq	.LC7(%rip), %rax
	jmp	.L49
.L30:
	.loc 1 91 20
	leaq	.LC8(%rip), %rax
	jmp	.L49
.L29:
	.loc 1 95 20
	leaq	.LC9(%rip), %rax
	jmp	.L49
.L28:
	.loc 1 99 20
	leaq	.LC10(%rip), %rax
	jmp	.L49
.L27:
	.loc 1 103 20
	leaq	.LC11(%rip), %rax
	jmp	.L49
.L26:
	.loc 1 107 20
	leaq	.LC12(%rip), %rax
	jmp	.L49
.L25:
	.loc 1 111 20
	leaq	.LC13(%rip), %rax
	jmp	.L49
.L24:
	.loc 1 115 20
	leaq	.LC14(%rip), %rax
	jmp	.L49
.L23:
	.loc 1 119 20
	leaq	.LC15(%rip), %rax
	jmp	.L49
.L22:
	.loc 1 123 20
	leaq	.LC16(%rip), %rax
	jmp	.L49
.L21:
	.loc 1 127 20
	leaq	.LC17(%rip), %rax
	jmp	.L49
.L20:
	.loc 1 131 20
	leaq	.LC18(%rip), %rax
	jmp	.L49
.L19:
	.loc 1 135 20
	leaq	.LC19(%rip), %rax
	jmp	.L49
.L18:
	.loc 1 139 20
	leaq	.LC20(%rip), %rax
	jmp	.L49
.L17:
	.loc 1 143 20
	leaq	.LC21(%rip), %rax
	jmp	.L49
.L16:
	.loc 1 147 20
	leaq	.LC22(%rip), %rax
	jmp	.L49
.L15:
	.loc 1 151 20
	leaq	.LC23(%rip), %rax
	jmp	.L49
.L14:
	.loc 1 155 20
	leaq	.LC24(%rip), %rax
	jmp	.L49
.L13:
	.loc 1 159 20
	leaq	.LC25(%rip), %rax
	jmp	.L49
.L12:
	.loc 1 163 20
	leaq	.LC26(%rip), %rax
	jmp	.L49
.L11:
	.loc 1 167 20
	leaq	.LC27(%rip), %rax
	jmp	.L49
.L10:
	.loc 1 171 20
	leaq	.LC28(%rip), %rax
	jmp	.L49
.L9:
	.loc 1 175 20
	leaq	.LC29(%rip), %rax
	jmp	.L49
.L8:
	.loc 1 179 20
	leaq	.LC30(%rip), %rax
	jmp	.L49
.L7:
	.loc 1 183 20
	leaq	.LC31(%rip), %rax
	jmp	.L49
.L5:
	.loc 1 187 20
	leaq	.LC28(%rip), %rax
	jmp	.L49
.L46:
	.loc 1 191 20
	leaq	.LC32(%rip), %rax
	jmp	.L49
.L45:
	.loc 1 195 20
	leaq	.LC33(%rip), %rax
	jmp	.L49
.L44:
	.loc 1 199 20
	leaq	.LC34(%rip), %rax
	jmp	.L49
.L43:
	.loc 1 203 20
	leaq	.LC35(%rip), %rax
	jmp	.L49
.L42:
	.loc 1 207 20
	leaq	.LC36(%rip), %rax
	jmp	.L49
.L41:
	.loc 1 211 20
	leaq	.LC37(%rip), %rax
	jmp	.L49
.L39:
	.loc 1 215 20
	leaq	.LC38(%rip), %rax
	jmp	.L49
.L47:
	.loc 1 219 20
	leaq	.LC39(%rip), %rax
	jmp	.L49
.L4:
	.loc 1 222 12
	leaq	.LC40(%rip), %rax
.L49:
	.loc 1 223 1
	popq	%rbp
	.cfi_restore 6
	.cfi_def_cfa 7, 8
	ret
	.cfi_endproc
.LFE0:
	.seh_endproc
	.globl	ImageHandle
	.bss
	.align 8
ImageHandle:
	.space 8
	.globl	SystemTable
	.align 8
SystemTable:
	.space 8
	.globl	gop
	.align 8
gop:
	.space 8
	.globl	GraphicsColor
GraphicsColor:
	.space 4
	.globl	Volume
	.align 8
Volume:
	.space 8
	.text
	.globl	SetTextPosition
	.def	SetTextPosition;	.scl	2;	.type	32;	.endef
	.seh_proc	SetTextPosition
SetTextPosition:
.LFB1:
	.file 2 "efilibs.h"
	.loc 2 26 1
	.cfi_startproc
	pushq	%rbp
	.seh_pushreg	%rbp
	.cfi_def_cfa_offset 16
	.cfi_offset 6, -16
	movq	%rsp, %rbp
	.seh_setframe	%rbp, 0
	.cfi_def_cfa_register 6
	subq	$32, %rsp
	.seh_stackalloc	32
	.seh_endprologue
	movl	%ecx, 16(%rbp)
	movl	%edx, 24(%rbp)
	.loc 2 28 16
	movq	SystemTable(%rip), %rax
	movq	64(%rax), %rax
	.loc 2 28 24
	movq	56(%rax), %r9
	.loc 2 28 5
	movl	24(%rbp), %ecx
	movl	16(%rbp), %edx
	.loc 2 28 55
	movq	SystemTable(%rip), %rax
	movq	64(%rax), %rax
	.loc 2 28 5
	movq	%rcx, %r8
	movq	%rax, %rcx
	call	*%r9
.LVL0:
	.loc 2 29 1
	nop
	addq	$32, %rsp
	popq	%rbp
	.cfi_restore 6
	.cfi_def_cfa 7, 8
	ret
	.cfi_endproc
.LFE1:
	.seh_endproc
	.globl	ResetScreen
	.def	ResetScreen;	.scl	2;	.type	32;	.endef
	.seh_proc	ResetScreen
ResetScreen:
.LFB2:
	.loc 2 32 1
	.cfi_startproc
	pushq	%rbp
	.seh_pushreg	%rbp
	.cfi_def_cfa_offset 16
	.cfi_offset 6, -16
	movq	%rsp, %rbp
	.seh_setframe	%rbp, 0
	.cfi_def_cfa_register 6
	subq	$32, %rsp
	.seh_stackalloc	32
	.seh_endprologue
	.loc 2 34 16
	movq	SystemTable(%rip), %rax
	movq	64(%rax), %rax
	.loc 2 34 24
	movq	(%rax), %r8
	.loc 2 34 43
	movq	SystemTable(%rip), %rax
	movq	64(%rax), %rax
	.loc 2 34 5
	movl	$1, %edx
	movq	%rax, %rcx
	call	*%r8
.LVL1:
	.loc 2 35 1
	nop
	addq	$32, %rsp
	popq	%rbp
	.cfi_restore 6
	.cfi_def_cfa 7, 8
	ret
	.cfi_endproc
.LFE2:
	.seh_endproc
	.globl	ClearScreen
	.def	ClearScreen;	.scl	2;	.type	32;	.endef
	.seh_proc	ClearScreen
ClearScreen:
.LFB3:
	.loc 2 38 1
	.cfi_startproc
	pushq	%rbp
	.seh_pushreg	%rbp
	.cfi_def_cfa_offset 16
	.cfi_offset 6, -16
	movq	%rsp, %rbp
	.seh_setframe	%rbp, 0
	.cfi_def_cfa_register 6
	subq	$32, %rsp
	.seh_stackalloc	32
	.seh_endprologue
	.loc 2 40 16
	movq	SystemTable(%rip), %rax
	movq	64(%rax), %rax
	.loc 2 40 24
	movq	48(%rax), %rdx
	.loc 2 40 49
	movq	SystemTable(%rip), %rax
	movq	64(%rax), %rax
	.loc 2 40 5
	movq	%rax, %rcx
	call	*%rdx
.LVL2:
	.loc 2 41 1
	nop
	addq	$32, %rsp
	popq	%rbp
	.cfi_restore 6
	.cfi_def_cfa 7, 8
	ret
	.cfi_endproc
.LFE3:
	.seh_endproc
	.globl	SetColor
	.def	SetColor;	.scl	2;	.type	32;	.endef
	.seh_proc	SetColor
SetColor:
.LFB4:
	.loc 2 44 1
	.cfi_startproc
	pushq	%rbp
	.seh_pushreg	%rbp
	.cfi_def_cfa_offset 16
	.cfi_offset 6, -16
	movq	%rsp, %rbp
	.seh_setframe	%rbp, 0
	.cfi_def_cfa_register 6
	subq	$32, %rsp
	.seh_stackalloc	32
	.seh_endprologue
	movq	%rcx, 16(%rbp)
	.loc 2 46 16
	movq	SystemTable(%rip), %rax
	movq	64(%rax), %rax
	.loc 2 46 24
	movq	40(%rax), %r8
	.loc 2 46 50
	movq	SystemTable(%rip), %rax
	movq	64(%rax), %rax
	.loc 2 46 5
	movq	16(%rbp), %rdx
	movq	%rax, %rcx
	call	*%r8
.LVL3:
	.loc 2 47 1
	nop
	addq	$32, %rsp
	popq	%rbp
	.cfi_restore 6
	.cfi_def_cfa 7, 8
	ret
	.cfi_endproc
.LFE4:
	.seh_endproc
	.globl	Print
	.def	Print;	.scl	2;	.type	32;	.endef
	.seh_proc	Print
Print:
.LFB5:
	.loc 2 50 1
	.cfi_startproc
	pushq	%rbp
	.seh_pushreg	%rbp
	.cfi_def_cfa_offset 16
	.cfi_offset 6, -16
	movq	%rsp, %rbp
	.seh_setframe	%rbp, 0
	.cfi_def_cfa_register 6
	subq	$32, %rsp
	.seh_stackalloc	32
	.seh_endprologue
	movq	%rcx, 16(%rbp)
	.loc 2 52 16
	movq	SystemTable(%rip), %rax
	movq	64(%rax), %rax
	.loc 2 52 24
	movq	8(%rax), %r8
	.loc 2 52 50
	movq	SystemTable(%rip), %rax
	movq	64(%rax), %rax
	.loc 2 52 5
	movq	16(%rbp), %rdx
	movq	%rax, %rcx
	call	*%r8
.LVL4:
	.loc 2 53 1
	nop
	addq	$32, %rsp
	popq	%rbp
	.cfi_restore 6
	.cfi_def_cfa 7, 8
	ret
	.cfi_endproc
.LFE5:
	.seh_endproc
	.globl	HitAnyKey
	.def	HitAnyKey;	.scl	2;	.type	32;	.endef
	.seh_proc	HitAnyKey
HitAnyKey:
.LFB6:
	.loc 2 56 1
	.cfi_startproc
	pushq	%rbp
	.seh_pushreg	%rbp
	.cfi_def_cfa_offset 16
	.cfi_offset 6, -16
	movq	%rsp, %rbp
	.seh_setframe	%rbp, 0
	.cfi_def_cfa_register 6
	subq	$48, %rsp
	.seh_stackalloc	48
	.seh_endprologue
	.loc 2 58 16
	movq	SystemTable(%rip), %rax
	movq	48(%rax), %rax
	.loc 2 58 23
	movq	(%rax), %r8
	.loc 2 58 42
	movq	SystemTable(%rip), %rax
	movq	48(%rax), %rax
	.loc 2 58 5
	movl	$1, %edx
	movq	%rax, %rcx
	call	*%r8
.LVL5:
	.loc 2 64 10
	nop
.L57:
	.loc 2 64 23 discriminator 1
	movq	SystemTable(%rip), %rax
	movq	48(%rax), %rax
	.loc 2 64 30 discriminator 1
	movq	8(%rax), %r8
	.loc 2 64 57 discriminator 1
	movq	SystemTable(%rip), %rax
	movq	48(%rax), %rax
	.loc 2 64 12 discriminator 1
	leaq	-4(%rbp), %rdx
	movq	%rax, %rcx
	call	*%r8
.LVL6:
	.loc 2 64 73 discriminator 1
	movabsq	$-9223372036854775802, %rdx
	cmpq	%rdx, %rax
	je	.L57
	.loc 2 65 1
	nop
	nop
	addq	$48, %rsp
	popq	%rbp
	.cfi_restore 6
	.cfi_def_cfa 7, 8
	ret
	.cfi_endproc
.LFE6:
	.seh_endproc
	.globl	ResetKeyboard
	.def	ResetKeyboard;	.scl	2;	.type	32;	.endef
	.seh_proc	ResetKeyboard
ResetKeyboard:
.LFB7:
	.loc 2 68 1
	.cfi_startproc
	pushq	%rbp
	.seh_pushreg	%rbp
	.cfi_def_cfa_offset 16
	.cfi_offset 6, -16
	movq	%rsp, %rbp
	.seh_setframe	%rbp, 0
	.cfi_def_cfa_register 6
	subq	$32, %rsp
	.seh_stackalloc	32
	.seh_endprologue
	.loc 2 69 16
	movq	SystemTable(%rip), %rax
	movq	48(%rax), %rax
	.loc 2 69 23
	movq	(%rax), %r8
	.loc 2 69 42
	movq	SystemTable(%rip), %rax
	movq	48(%rax), %rax
	.loc 2 69 5
	movl	$1, %edx
	movq	%rax, %rcx
	call	*%r8
.LVL7:
	.loc 2 70 1
	nop
	addq	$32, %rsp
	popq	%rbp
	.cfi_restore 6
	.cfi_def_cfa 7, 8
	ret
	.cfi_endproc
.LFE7:
	.seh_endproc
	.globl	CheckKeystroke
	.bss
	.align 2
CheckKeystroke:
	.space 4
	.text
	.globl	GetKey
	.def	GetKey;	.scl	2;	.type	32;	.endef
	.seh_proc	GetKey
GetKey:
.LFB8:
	.loc 2 74 1
	.cfi_startproc
	pushq	%rbp
	.seh_pushreg	%rbp
	.cfi_def_cfa_offset 16
	.cfi_offset 6, -16
	movq	%rsp, %rbp
	.seh_setframe	%rbp, 0
	.cfi_def_cfa_register 6
	.seh_endprologue
	movl	%ecx, %eax
	movw	%ax, 16(%rbp)
	.loc 2 75 22
	movzwl	2+CheckKeystroke(%rip), %eax
	.loc 2 75 7
	cmpw	%ax, 16(%rbp)
	jne	.L60
	.loc 2 77 16
	movl	$1, %eax
	jmp	.L61
.L60:
	.loc 2 79 16
	movl	$0, %eax
.L61:
	.loc 2 81 1
	popq	%rbp
	.cfi_restore 6
	.cfi_def_cfa 7, 8
	ret
	.cfi_endproc
.LFE8:
	.seh_endproc
	.globl	CheckKey
	.def	CheckKey;	.scl	2;	.type	32;	.endef
	.seh_proc	CheckKey
CheckKey:
.LFB9:
	.loc 2 84 1
	.cfi_startproc
	pushq	%rbp
	.seh_pushreg	%rbp
	.cfi_def_cfa_offset 16
	.cfi_offset 6, -16
	movq	%rsp, %rbp
	.seh_setframe	%rbp, 0
	.cfi_def_cfa_register 6
	subq	$32, %rsp
	.seh_stackalloc	32
	.seh_endprologue
	.loc 2 85 23
	movq	SystemTable(%rip), %rax
	movq	48(%rax), %rax
	.loc 2 85 30
	movq	8(%rax), %r8
	.loc 2 85 57
	movq	SystemTable(%rip), %rax
	movq	48(%rax), %rax
	.loc 2 85 12
	leaq	CheckKeystroke(%rip), %rdx
	movq	%rax, %rcx
	call	*%r8
.LVL8:
	.loc 2 86 1
	addq	$32, %rsp
	popq	%rbp
	.cfi_restore 6
	.cfi_def_cfa 7, 8
	ret
	.cfi_endproc
.LFE9:
	.seh_endproc
	.globl	SetGraphicsColor
	.def	SetGraphicsColor;	.scl	2;	.type	32;	.endef
	.seh_proc	SetGraphicsColor
SetGraphicsColor:
.LFB10:
	.loc 2 90 1
	.cfi_startproc
	pushq	%rbp
	.seh_pushreg	%rbp
	.cfi_def_cfa_offset 16
	.cfi_offset 6, -16
	movq	%rsp, %rbp
	.seh_setframe	%rbp, 0
	.cfi_def_cfa_register 6
	subq	$16, %rsp
	.seh_stackalloc	16
	.seh_endprologue
	movl	%ecx, 16(%rbp)
	.loc 2 92 29
	movl	16(%rbp), %eax
	shrl	$24, %eax
	.loc 2 92 21
	movb	%al, -1(%rbp)
	.loc 2 93 24
	movl	16(%rbp), %eax
	shrl	$16, %eax
	.loc 2 93 16
	movb	%al, -2(%rbp)
	.loc 2 94 26
	movl	16(%rbp), %eax
	shrl	$8, %eax
	.loc 2 94 18
	movb	%al, -3(%rbp)
	.loc 2 95 17
	movl	16(%rbp), %eax
	movb	%al, -4(%rbp)
	.loc 2 96 19
	movl	-4(%rbp), %eax
	movl	%eax, GraphicsColor(%rip)
	.loc 2 97 1
	nop
	addq	$16, %rsp
	popq	%rbp
	.cfi_restore 6
	.cfi_def_cfa 7, 8
	ret
	.cfi_endproc
.LFE10:
	.seh_endproc
	.globl	SetPixel
	.def	SetPixel;	.scl	2;	.type	32;	.endef
	.seh_proc	SetPixel
SetPixel:
.LFB11:
	.loc 2 101 1
	.cfi_startproc
	pushq	%rbp
	.seh_pushreg	%rbp
	.cfi_def_cfa_offset 16
	.cfi_offset 6, -16
	movq	%rsp, %rbp
	.seh_setframe	%rbp, 0
	.cfi_def_cfa_register 6
	subq	$80, %rsp
	.seh_stackalloc	80
	.seh_endprologue
	movl	%ecx, 16(%rbp)
	movl	%edx, 24(%rbp)
	.loc 2 103 8
	movq	gop(%rip), %rax
	movq	16(%rax), %r10
	.loc 2 103 5
	movl	24(%rbp), %ecx
	movl	16(%rbp), %edx
	movq	gop(%rip), %rax
	movq	$0, 72(%rsp)
	movq	$1, 64(%rsp)
	movq	$1, 56(%rsp)
	movq	%rcx, 48(%rsp)
	movq	%rdx, 40(%rsp)
	movq	$0, 32(%rsp)
	movl	$0, %r9d
	movl	$0, %r8d
	leaq	GraphicsColor(%rip), %rdx
	movq	%rax, %rcx
	call	*%r10
.LVL9:
	.loc 2 104 1
	nop
	addq	$80, %rsp
	popq	%rbp
	.cfi_restore 6
	.cfi_def_cfa 7, 8
	ret
	.cfi_endproc
.LFE11:
	.seh_endproc
	.globl	CreateFilledBox
	.def	CreateFilledBox;	.scl	2;	.type	32;	.endef
	.seh_proc	CreateFilledBox
CreateFilledBox:
.LFB12:
	.loc 2 109 1
	.cfi_startproc
	pushq	%rbp
	.seh_pushreg	%rbp
	.cfi_def_cfa_offset 16
	.cfi_offset 6, -16
	movq	%rsp, %rbp
	.seh_setframe	%rbp, 0
	.cfi_def_cfa_register 6
	subq	$80, %rsp
	.seh_stackalloc	80
	.seh_endprologue
	movl	%ecx, 16(%rbp)
	movl	%edx, 24(%rbp)
	movl	%r8d, 32(%rbp)
	movl	%r9d, 40(%rbp)
	.loc 2 111 8
	movq	gop(%rip), %rax
	movq	16(%rax), %r10
	.loc 2 111 5
	movl	40(%rbp), %r9d
	movl	32(%rbp), %r8d
	movl	24(%rbp), %ecx
	movl	16(%rbp), %edx
	movq	gop(%rip), %rax
	movq	$0, 72(%rsp)
	movq	%r9, 64(%rsp)
	movq	%r8, 56(%rsp)
	movq	%rcx, 48(%rsp)
	movq	%rdx, 40(%rsp)
	movq	$0, 32(%rsp)
	movl	$0, %r9d
	movl	$0, %r8d
	leaq	GraphicsColor(%rip), %rdx
	movq	%rax, %rcx
	call	*%r10
.LVL10:
	.loc 2 112 1
	nop
	addq	$80, %rsp
	popq	%rbp
	.cfi_restore 6
	.cfi_def_cfa 7, 8
	ret
	.cfi_endproc
.LFE12:
	.seh_endproc
	.globl	Delay
	.def	Delay;	.scl	2;	.type	32;	.endef
	.seh_proc	Delay
Delay:
.LFB13:
	.loc 2 115 1
	.cfi_startproc
	pushq	%rbp
	.seh_pushreg	%rbp
	.cfi_def_cfa_offset 16
	.cfi_offset 6, -16
	movq	%rsp, %rbp
	.seh_setframe	%rbp, 0
	.cfi_def_cfa_register 6
	subq	$32, %rsp
	.seh_stackalloc	32
	.seh_endprologue
	movq	%rcx, 16(%rbp)
	.loc 2 119 16
	movq	SystemTable(%rip), %rax
	movq	96(%rax), %rax
	.loc 2 119 30
	movq	248(%rax), %rdx
	.loc 2 119 5
	movq	16(%rbp), %rax
	imulq	$1000, %rax, %rax
	movq	%rax, %rcx
	call	*%rdx
.LVL11:
	.loc 2 120 1
	nop
	addq	$32, %rsp
	popq	%rbp
	.cfi_restore 6
	.cfi_def_cfa 7, 8
	ret
	.cfi_endproc
.LFE13:
	.seh_endproc
	.globl	Delay1
	.def	Delay1;	.scl	2;	.type	32;	.endef
	.seh_proc	Delay1
Delay1:
.LFB14:
	.loc 2 123 1
	.cfi_startproc
	pushq	%rbp
	.seh_pushreg	%rbp
	.cfi_def_cfa_offset 16
	.cfi_offset 6, -16
	movq	%rsp, %rbp
	.seh_setframe	%rbp, 0
	.cfi_def_cfa_register 6
	subq	$32, %rsp
	.seh_stackalloc	32
	.seh_endprologue
	.loc 2 125 16
	movq	SystemTable(%rip), %rax
	movq	96(%rax), %rax
	.loc 2 125 30
	movq	248(%rax), %rax
	.loc 2 125 5
	movl	$1, %ecx
	call	*%rax
.LVL12:
	.loc 2 126 1
	nop
	addq	$32, %rsp
	popq	%rbp
	.cfi_restore 6
	.cfi_def_cfa 7, 8
	ret
	.cfi_endproc
.LFE14:
	.seh_endproc
	.globl	COLD_REBOOT
	.def	COLD_REBOOT;	.scl	2;	.type	32;	.endef
	.seh_proc	COLD_REBOOT
COLD_REBOOT:
.LFB15:
	.loc 2 129 1
	.cfi_startproc
	pushq	%rbp
	.seh_pushreg	%rbp
	.cfi_def_cfa_offset 16
	.cfi_offset 6, -16
	movq	%rsp, %rbp
	.seh_setframe	%rbp, 0
	.cfi_def_cfa_register 6
	subq	$32, %rsp
	.seh_stackalloc	32
	.seh_endprologue
	.loc 2 131 16
	movq	SystemTable(%rip), %rax
	movq	88(%rax), %rax
	.loc 2 131 33
	movq	104(%rax), %rax
	.loc 2 131 5
	movl	$0, %r9d
	movl	$0, %r8d
	movl	$0, %edx
	movl	$0, %ecx
	call	*%rax
.LVL13:
	.loc 2 132 1
	nop
	addq	$32, %rsp
	popq	%rbp
	.cfi_restore 6
	.cfi_def_cfa 7, 8
	ret
	.cfi_endproc
.LFE15:
	.seh_endproc
	.globl	WARM_REBOOT
	.def	WARM_REBOOT;	.scl	2;	.type	32;	.endef
	.seh_proc	WARM_REBOOT
WARM_REBOOT:
.LFB16:
	.loc 2 135 1
	.cfi_startproc
	pushq	%rbp
	.seh_pushreg	%rbp
	.cfi_def_cfa_offset 16
	.cfi_offset 6, -16
	movq	%rsp, %rbp
	.seh_setframe	%rbp, 0
	.cfi_def_cfa_register 6
	subq	$32, %rsp
	.seh_stackalloc	32
	.seh_endprologue
	.loc 2 137 16
	movq	SystemTable(%rip), %rax
	movq	88(%rax), %rax
	.loc 2 137 33
	movq	104(%rax), %rax
	.loc 2 137 5
	movl	$0, %r9d
	movl	$0, %r8d
	movl	$0, %edx
	movl	$1, %ecx
	call	*%rax
.LVL14:
	.loc 2 138 1
	nop
	addq	$32, %rsp
	popq	%rbp
	.cfi_restore 6
	.cfi_def_cfa 7, 8
	ret
	.cfi_endproc
.LFE16:
	.seh_endproc
	.globl	SHUTDOWN
	.def	SHUTDOWN;	.scl	2;	.type	32;	.endef
	.seh_proc	SHUTDOWN
SHUTDOWN:
.LFB17:
	.loc 2 141 1
	.cfi_startproc
	pushq	%rbp
	.seh_pushreg	%rbp
	.cfi_def_cfa_offset 16
	.cfi_offset 6, -16
	movq	%rsp, %rbp
	.seh_setframe	%rbp, 0
	.cfi_def_cfa_register 6
	subq	$32, %rsp
	.seh_stackalloc	32
	.seh_endprologue
	.loc 2 145 16
	movq	SystemTable(%rip), %rax
	movq	88(%rax), %rax
	.loc 2 145 33
	movq	104(%rax), %rax
	.loc 2 145 5
	movl	$0, %r9d
	movl	$0, %r8d
	movl	$0, %edx
	movl	$2, %ecx
	call	*%rax
.LVL15:
	.loc 2 146 1
	nop
	addq	$32, %rsp
	popq	%rbp
	.cfi_restore 6
	.cfi_def_cfa 7, 8
	ret
	.cfi_endproc
.LFE17:
	.seh_endproc
	.section .rdata,"dr"
	.align 8
.LC41:
	.ascii "\15\0\12\0\15\0\12\0L\0o\0a\0d\0i\0n\0g\0 \0G\0r\0a\0p\0h\0i\0c\0s\0 \0O\0u\0t\0p\0u\0t\0 \0P\0r\0o\0t\0o\0c\0o\0l\0 \0.\0.\0.\0 \0\0\0"
	.text
	.globl	InitializeGOP
	.def	InitializeGOP;	.scl	2;	.type	32;	.endef
	.seh_proc	InitializeGOP
InitializeGOP:
.LFB18:
	.loc 2 149 1
	.cfi_startproc
	pushq	%rbp
	.seh_pushreg	%rbp
	.cfi_def_cfa_offset 16
	.cfi_offset 6, -16
	movq	%rsp, %rbp
	.seh_setframe	%rbp, 0
	.cfi_def_cfa_register 6
	subq	$48, %rsp
	.seh_stackalloc	48
	.seh_endprologue
	.loc 2 152 5
	movl	$6, %ecx
	call	SetColor
	.loc 2 153 5
	leaq	.LC41(%rip), %rax
	movq	%rax, %rcx
	call	Print
	.loc 2 154 36
	movq	SystemTable(%rip), %rax
	movq	96(%rax), %rax
	.loc 2 154 50
	movq	320(%rax), %rax
	.loc 2 154 25
	leaq	gop(%rip), %r8
	movl	$0, %edx
	leaq	EFI_GRAPHICS_OUTPUT_PROTOCOL_GUID(%rip), %rcx
	call	*%rax
.LVL16:
	movq	%rax, -8(%rbp)
	.loc 2 155 5
	movl	$3, %ecx
	call	SetColor
	.loc 2 156 11
	movq	-8(%rbp), %rax
	movq	%rax, %rcx
	call	CheckStandardEFIError
	.loc 2 156 5 discriminator 1
	movq	%rax, %rcx
	call	Print
	.loc 2 157 1
	nop
	addq	$48, %rsp
	popq	%rbp
	.cfi_restore 6
	.cfi_def_cfa 7, 8
	ret
	.cfi_endproc
.LFE18:
	.seh_endproc
	.section .rdata,"dr"
	.align 8
.LC42:
	.ascii "L\0o\0a\0d\0e\0d\0I\0m\0a\0g\0e\0 \0.\0.\0.\0 \0\0\0"
	.align 8
.LC43:
	.ascii "D\0e\0v\0i\0c\0e\0P\0a\0t\0h\0 \0.\0.\0.\0 \0\0\0"
	.align 2
.LC44:
	.ascii "V\0o\0l\0u\0m\0e\0 \0.\0.\0.\0 \0\0\0"
	.text
	.globl	InitializeFILESYSTEM
	.def	InitializeFILESYSTEM;	.scl	2;	.type	32;	.endef
	.seh_proc	InitializeFILESYSTEM
InitializeFILESYSTEM:
.LFB19:
	.loc 2 160 1
	.cfi_startproc
	pushq	%rbp
	.seh_pushreg	%rbp
	.cfi_def_cfa_offset 16
	.cfi_offset 6, -16
	movq	%rsp, %rbp
	.seh_setframe	%rbp, 0
	.cfi_def_cfa_register 6
	subq	$64, %rsp
	.seh_stackalloc	64
	.seh_endprologue
	.loc 2 163 5
	movl	$6, %ecx
	call	SetColor
	.loc 2 164 5
	leaq	.LC42(%rip), %rax
	movq	%rax, %rcx
	call	Print
	.loc 2 166 25
	movq	SystemTable(%rip), %rax
	movq	96(%rax), %rax
	.loc 2 166 39
	movq	152(%rax), %r9
	.loc 2 166 14
	movq	ImageHandle(%rip), %rax
	leaq	-16(%rbp), %rdx
	movq	%rdx, %r8
	leaq	EFI_LOADED_IMAGE_PROTOCOL_GUID(%rip), %rdx
	movq	%rax, %rcx
	call	*%r9
.LVL17:
	movq	%rax, -8(%rbp)
	.loc 2 169 5
	movl	$3, %ecx
	call	SetColor
	.loc 2 170 11
	movq	-8(%rbp), %rax
	movq	%rax, %rcx
	call	CheckStandardEFIError
	.loc 2 170 5 discriminator 1
	movq	%rax, %rcx
	call	Print
	.loc 2 172 5
	movl	$6, %ecx
	call	SetColor
	.loc 2 173 5
	leaq	.LC43(%rip), %rax
	movq	%rax, %rcx
	call	Print
	.loc 2 175 25
	movq	SystemTable(%rip), %rax
	movq	96(%rax), %rax
	.loc 2 175 39
	movq	152(%rax), %r9
	.loc 2 175 67
	movq	-16(%rbp), %rax
	.loc 2 175 14
	movq	24(%rax), %rax
	leaq	-24(%rbp), %rdx
	movq	%rdx, %r8
	leaq	EFI_DEVICE_PATH_PROTOCOL_GUID(%rip), %rdx
	movq	%rax, %rcx
	call	*%r9
.LVL18:
	movq	%rax, -8(%rbp)
	.loc 2 176 5
	movl	$3, %ecx
	call	SetColor
	.loc 2 177 11
	movq	-8(%rbp), %rax
	movq	%rax, %rcx
	call	CheckStandardEFIError
	.loc 2 177 5 discriminator 1
	movq	%rax, %rcx
	call	Print
	.loc 2 179 5
	movl	$6, %ecx
	call	SetColor
	.loc 2 180 5
	leaq	.LC44(%rip), %rax
	movq	%rax, %rcx
	call	Print
	.loc 2 181 25
	movq	SystemTable(%rip), %rax
	movq	96(%rax), %rax
	.loc 2 181 39
	movq	152(%rax), %r9
	.loc 2 181 67
	movq	-16(%rbp), %rax
	.loc 2 181 14
	movq	24(%rax), %rax
	leaq	Volume(%rip), %r8
	leaq	EFI_SIMPLE_FILE_SYSTEM_PROTOCOL_GUID(%rip), %rdx
	movq	%rax, %rcx
	call	*%r9
.LVL19:
	movq	%rax, -8(%rbp)
	.loc 2 182 5
	movl	$3, %ecx
	call	SetColor
	.loc 2 183 11
	movq	-8(%rbp), %rax
	movq	%rax, %rcx
	call	CheckStandardEFIError
	.loc 2 183 5 discriminator 1
	movq	%rax, %rcx
	call	Print
	.loc 2 184 1
	nop
	addq	$64, %rsp
	popq	%rbp
	.cfi_restore 6
	.cfi_def_cfa 7, 8
	ret
	.cfi_endproc
.LFE19:
	.seh_endproc
	.section .rdata,"dr"
	.align 2
.LC45:
	.ascii "R\0o\0o\0t\0F\0S\0 \0.\0.\0.\0 \0\0\0"
	.align 8
.LC46:
	.ascii "O\0p\0e\0n\0i\0n\0g\0 \0F\0i\0l\0e\0 \0.\0.\0.\0 \0\0\0"
	.text
	.globl	openFile
	.def	openFile;	.scl	2;	.type	32;	.endef
	.seh_proc	openFile
openFile:
.LFB20:
	.loc 2 187 1
	.cfi_startproc
	pushq	%rbp
	.seh_pushreg	%rbp
	.cfi_def_cfa_offset 16
	.cfi_offset 6, -16
	movq	%rsp, %rbp
	.seh_setframe	%rbp, 0
	.cfi_def_cfa_register 6
	subq	$80, %rsp
	.seh_stackalloc	80
	.seh_endprologue
	movq	%rcx, 16(%rbp)
	.loc 2 192 5
	movl	$6, %ecx
	call	SetColor
	.loc 2 193 5
	leaq	.LC45(%rip), %rax
	movq	%rax, %rcx
	call	Print
	.loc 2 195 20
	movq	Volume(%rip), %rax
	movq	8(%rax), %r8
	.loc 2 195 14
	movq	Volume(%rip), %rax
	leaq	-16(%rbp), %rdx
	movq	%rax, %rcx
	call	*%r8
.LVL20:
	movq	%rax, -8(%rbp)
	.loc 2 196 5
	movl	$3, %ecx
	call	SetColor
	.loc 2 197 11
	movq	-8(%rbp), %rax
	movq	%rax, %rcx
	call	CheckStandardEFIError
	.loc 2 197 5 discriminator 1
	movq	%rax, %rcx
	call	Print
	.loc 2 199 5
	movl	$6, %ecx
	call	SetColor
	.loc 2 200 5
	leaq	.LC46(%rip), %rax
	movq	%rax, %rcx
	call	Print
	.loc 2 201 24
	movq	$0, -24(%rbp)
	.loc 2 202 20
	movq	-16(%rbp), %rax
	movq	8(%rax), %r10
	.loc 2 202 14
	movq	-16(%rbp), %rax
	movq	16(%rbp), %rcx
	leaq	-24(%rbp), %rdx
	movq	$0, 32(%rsp)
	movl	$1, %r9d
	movq	%rcx, %r8
	movq	%rax, %rcx
	call	*%r10
.LVL21:
	movq	%rax, -8(%rbp)
	.loc 2 203 5
	movl	$3, %ecx
	call	SetColor
	.loc 2 204 11
	movq	-8(%rbp), %rax
	movq	%rax, %rcx
	call	CheckStandardEFIError
	.loc 2 204 5 discriminator 1
	movq	%rax, %rcx
	call	Print
	.loc 2 206 12
	movq	-24(%rbp), %rax
	.loc 2 207 1
	addq	$80, %rsp
	popq	%rbp
	.cfi_restore 6
	.cfi_def_cfa 7, 8
	ret
	.cfi_endproc
.LFE20:
	.seh_endproc
	.section .rdata,"dr"
	.align 8
.LC47:
	.ascii "C\0l\0o\0s\0i\0n\0g\0 \0F\0i\0l\0e\0 \0.\0.\0.\0 \0\0\0"
	.text
	.globl	closeFile
	.def	closeFile;	.scl	2;	.type	32;	.endef
	.seh_proc	closeFile
closeFile:
.LFB21:
	.loc 2 210 1
	.cfi_startproc
	pushq	%rbp
	.seh_pushreg	%rbp
	.cfi_def_cfa_offset 16
	.cfi_offset 6, -16
	movq	%rsp, %rbp
	.seh_setframe	%rbp, 0
	.cfi_def_cfa_register 6
	subq	$48, %rsp
	.seh_stackalloc	48
	.seh_endprologue
	movq	%rcx, 16(%rbp)
	.loc 2 213 5
	movl	$6, %ecx
	call	SetColor
	.loc 2 214 5
	leaq	.LC47(%rip), %rax
	movq	%rax, %rcx
	call	Print
	.loc 2 215 24
	movq	16(%rbp), %rax
	movq	16(%rax), %rdx
	.loc 2 215 14
	movq	16(%rbp), %rax
	movq	%rax, %rcx
	call	*%rdx
.LVL22:
	movq	%rax, -8(%rbp)
	.loc 2 216 5
	movl	$3, %ecx
	call	SetColor
	.loc 2 217 11
	movq	-8(%rbp), %rax
	movq	%rax, %rcx
	call	CheckStandardEFIError
	.loc 2 217 5 discriminator 1
	movq	%rax, %rcx
	call	Print
	.loc 2 218 1
	nop
	addq	$48, %rsp
	popq	%rbp
	.cfi_restore 6
	.cfi_def_cfa 7, 8
	ret
	.cfi_endproc
.LFE21:
	.seh_endproc
	.section .rdata,"dr"
	.align 8
.LC48:
	.ascii "W\0e\0l\0c\0o\0m\0e\0 \0t\0o\0 \0t\0h\0e\0 \0U\0E\0F\0I\0 \0F\0r\0o\0m\0 \0S\0c\0r\0a\0t\0c\0h\0 \0T\0u\0t\0o\0r\0i\0a\0l\0s\0\15\0\12\0\15\0\12\0\0\0"
	.align 8
.LC49:
	.ascii "H\0i\0t\0 \0A\0n\0y\0 \0K\0e\0y\0 \0t\0o\0 \0s\0e\0t\0u\0p\0 \0I\0n\0i\0t\0i\0a\0l\0i\0z\0a\0t\0i\0o\0n\0s\0\0\0"
	.align 2
.LC50:
	.ascii "m\0y\0t\0e\0x\0t\0f\0i\0l\0e\0.\0t\0x\0t\0\0\0"
	.align 8
.LC51:
	.ascii "H\0i\0t\0 \0q\0 \0t\0o\0 \0q\0u\0i\0t\0 \0|\0 \0H\0i\0t\0 \0r\0 \0t\0o\0 \0r\0e\0b\0o\0o\0t\0\0\0"
	.align 2
.LC52:
	.ascii " \0 \0 \0.\0.\0.\0 \0 \0 \0\0\0"
	.text
	.globl	efi_main
	.def	efi_main;	.scl	2;	.type	32;	.endef
	.seh_proc	efi_main
efi_main:
.LFB22:
	.file 3 "efimain.c"
	.loc 3 13 1
	.cfi_startproc
	pushq	%rbp
	.seh_pushreg	%rbp
	.cfi_def_cfa_offset 16
	.cfi_offset 6, -16
	movq	%rsp, %rbp
	.seh_setframe	%rbp, 0
	.cfi_def_cfa_register 6
	subq	$64, %rsp
	.seh_stackalloc	64
	.seh_endprologue
	movq	%rcx, 16(%rbp)
	movq	%rdx, 24(%rbp)
	.loc 3 15 17
	movq	16(%rbp), %rax
	movq	%rax, ImageHandle(%rip)
	.loc 3 16 17
	movq	24(%rbp), %rax
	movq	%rax, SystemTable(%rip)
	.loc 3 18 5
	call	ResetScreen
	.loc 3 20 5
	movl	$15, %ecx
	call	SetColor
	.loc 3 21 5
	movl	$2, %edx
	movl	$10, %ecx
	call	SetTextPosition
	.loc 3 22 5
	leaq	.LC48(%rip), %rax
	movq	%rax, %rcx
	call	Print
	.loc 3 24 5
	movl	$2, %ecx
	call	SetColor
	.loc 3 25 5
	movl	$4, %edx
	movl	$10, %ecx
	call	SetTextPosition
	.loc 3 26 5
	leaq	.LC49(%rip), %rax
	movq	%rax, %rcx
	call	Print
	.loc 3 28 5
	call	HitAnyKey
	.loc 3 30 5
	call	InitializeGOP
	.loc 3 32 5
	call	InitializeFILESYSTEM
	.loc 3 34 37
	leaq	.LC50(%rip), %rax
	movq	%rax, %rcx
	call	openFile
	movq	%rax, -24(%rbp)
	.loc 3 38 5
	movq	-24(%rbp), %rax
	movq	%rax, %rcx
	call	closeFile
	.loc 3 40 5
	movl	$2, %ecx
	call	SetColor
	.loc 3 41 5
	movl	$23, %edx
	movl	$2, %ecx
	call	SetTextPosition
	.loc 3 42 5
	leaq	.LC51(%rip), %rax
	movq	%rax, %rcx
	call	Print
	.loc 3 44 5
	call	ResetKeyboard
	.loc 3 46 5
	movl	$15, %ecx
	call	SetColor
	.loc 3 48 8
	movq	$0, -8(%rbp)
	.loc 3 49 15
	movl	$5, -12(%rbp)
	.loc 3 50 10
	movb	$1, -13(%rbp)
.L85:
.LBB2:
	.loc 3 54 4
	addq	$1, -8(%rbp)
	.loc 3 55 5
	cmpq	$36000, -8(%rbp)
	jbe	.L78
	.loc 3 57 25
	call	Delay1
	.loc 3 58 6
	movq	$0, -8(%rbp)
	.loc 3 59 4
	movl	-12(%rbp), %eax
	movl	$17, %edx
	movl	%eax, %ecx
	call	SetTextPosition
	.loc 3 60 4
	leaq	.LC52(%rip), %rax
	movq	%rax, %rcx
	call	Print
	.loc 3 61 6
	cmpb	$1, -13(%rbp)
	jne	.L79
	.loc 3 63 9
	addl	$1, -12(%rbp)
	jmp	.L80
.L79:
	.loc 3 65 6
	subl	$1, -12(%rbp)
.L80:
	.loc 3 67 6
	cmpl	$4, -12(%rbp)
	ja	.L81
	.loc 3 69 7
	movl	$5, -12(%rbp)
	.loc 3 70 7
	movb	$1, -13(%rbp)
	jmp	.L78
.L81:
	.loc 3 71 13
	cmpl	$50, -12(%rbp)
	jbe	.L78
	.loc 3 73 7
	movl	$50, -12(%rbp)
	.loc 3 74 7
	movb	$0, -13(%rbp)
.L78:
	.loc 3 77 37
	call	CheckKey
	movq	%rax, -32(%rbp)
	.loc 3 78 19
	cmpq	$0, -32(%rbp)
	jne	.L85
	.loc 3 80 11
	movl	$113, %ecx
	call	GetKey
	.loc 3 80 10 discriminator 1
	cmpb	$1, %al
	jne	.L83
	.loc 3 82 25
	call	SHUTDOWN
	.loc 3 83 11
	jmp	.L84
.L83:
	.loc 3 85 24
	movl	$114, %ecx
	call	GetKey
	.loc 3 85 23 discriminator 1
	cmpb	$1, %al
	jne	.L85
	.loc 3 87 25
	call	COLD_REBOOT
.L84:
.LBE2:
	.loc 3 93 5
	call	COLD_REBOOT
	.loc 3 96 12
	movl	$0, %eax
	.loc 3 97 1
	addq	$64, %rsp
	popq	%rbp
	.cfi_restore 6
	.cfi_def_cfa 7, 8
	ret
	.cfi_endproc
.LFE22:
	.seh_endproc
.Letext0:
	.file 4 "C:/msys64/mingw64/lib/gcc/x86_64-w64-mingw32/14.1.0/include/stdint-gcc.h"
	.file 5 "efi.h"