	.file	"efimain.c"
	.text
.Ltext0:
	.cfi_sections	.debug_frame
	.file 0 "E://wf//src//uefi//UEFI-Tuts//src//tutorial 30" "efimain.c"
	.globl	EFI_GRAPHICS_OUTPUT_PROTOCOL_GUID
	.data
	.align 16
EFI_GRAPHICS_OUTPUT_PROTOCOL_GUID:
	.long	-1874679330
	.word	9180
	.word	19000
	.ascii "\226\373z\336\320\200Qj"
	.globl	EFI_LOADED_IMAGE_PROTOCOL_GUID
	.align 16
EFI_LOADED_IMAGE_PROTOCOL_GUID:
	.long	1528508833
	.word	-27294
	.word	4562
	.ascii "\216?\0\240\311ir;"
	.globl	EFI_SIMPLE_FILE_SYSTEM_PROTOCOL_GUID
	.align 16
EFI_SIMPLE_FILE_SYSTEM_PROTOCOL_GUID:
	.long	-1773249758
	.word	25689
	.word	4562
	.ascii "\216"
	.ascii "9\0\240\311ir;"
	.globl	EFI_DEVICE_PATH_PROTOCOL_GUID
	.align 16
EFI_DEVICE_PATH_PROTOCOL_GUID:
	.long	156724881
	.word	27967
	.word	4562
	.ascii "\216"
	.ascii "9\0\240\311ir;"
	.globl	EFI_FILE_INFO_GUID
	.align 16
EFI_FILE_INFO_GUID:
	.long	156724882
	.word	27967
	.word	4562
	.ascii "\216"
	.ascii "9\0\240\311ir;"
	.globl	ACPI_20_TABLE_GUID
	.align 16
ACPI_20_TABLE_GUID:
	.long	-2006390671
	.word	-6927
	.word	4563
	.ascii "\274\"\0\200\307<\210\201"
	.globl	ImageHandle
	.bss
	.align 8
ImageHandle:
	.space 8
	.globl	SystemTable
	.align 8
SystemTable:
	.space 8
	.globl	gop
	.align 8
gop:
	.space 8
	.globl	Volume
	.align 8
Volume:
	.space 8
	.globl	RootFS
	.align 8
RootFS:
	.space 8
	.text
	.globl	SetTextPosition
	.def	SetTextPosition;	.scl	2;	.type	32;	.endef
	.seh_proc	SetTextPosition
SetTextPosition:
.LFB2:
	.file 1 "efilibs.h"
	.loc 1 19 1
	.cfi_startproc
	pushq	%rbp
	.seh_pushreg	%rbp
	.cfi_def_cfa_offset 16
	.cfi_offset 6, -16
	movq	%rsp, %rbp
	.seh_setframe	%rbp, 0
	.cfi_def_cfa_register 6
	subq	$32, %rsp
	.seh_stackalloc	32
	.seh_endprologue
	movl	%ecx, 16(%rbp)
	movl	%edx, 24(%rbp)
	.loc 1 20 16
	movq	SystemTable(%rip), %rax
	movq	64(%rax), %rax
	.loc 1 20 24
	movq	56(%rax), %r9
	.loc 1 20 5
	movl	24(%rbp), %ecx
	movl	16(%rbp), %edx
	.loc 1 20 55
	movq	SystemTable(%rip), %rax
	movq	64(%rax), %rax
	.loc 1 20 5
	movq	%rcx, %r8
	movq	%rax, %rcx
	call	*%r9
.LVL0:
	.loc 1 21 1
	nop
	addq	$32, %rsp
	popq	%rbp
	.cfi_restore 6
	.cfi_def_cfa 7, 8
	ret
	.cfi_endproc
.LFE2:
	.seh_endproc
	.globl	ResetScreen
	.def	ResetScreen;	.scl	2;	.type	32;	.endef
	.seh_proc	ResetScreen
ResetScreen:
.LFB3:
	.loc 1 24 1
	.cfi_startproc
	pushq	%rbp
	.seh_pushreg	%rbp
	.cfi_def_cfa_offset 16
	.cfi_offset 6, -16
	movq	%rsp, %rbp
	.seh_setframe	%rbp, 0
	.cfi_def_cfa_register 6
	subq	$32, %rsp
	.seh_stackalloc	32
	.seh_endprologue
	.loc 1 25 16
	movq	SystemTable(%rip), %rax
	movq	64(%rax), %rax
	.loc 1 25 24
	movq	(%rax), %r8
	.loc 1 25 43
	movq	SystemTable(%rip), %rax
	movq	64(%rax), %rax
	.loc 1 25 5
	movl	$1, %edx
	movq	%rax, %rcx
	call	*%r8
.LVL1:
	.loc 1 26 1
	nop
	addq	$32, %rsp
	popq	%rbp
	.cfi_restore 6
	.cfi_def_cfa 7, 8
	ret
	.cfi_endproc
.LFE3:
	.seh_endproc
	.globl	ClearScreen
	.def	ClearScreen;	.scl	2;	.type	32;	.endef
	.seh_proc	ClearScreen
ClearScreen:
.LFB4:
	.loc 1 29 1
	.cfi_startproc
	pushq	%rbp
	.seh_pushreg	%rbp
	.cfi_def_cfa_offset 16
	.cfi_offset 6, -16
	movq	%rsp, %rbp
	.seh_setframe	%rbp, 0
	.cfi_def_cfa_register 6
	subq	$32, %rsp
	.seh_stackalloc	32
	.seh_endprologue
	.loc 1 30 16
	movq	SystemTable(%rip), %rax
	movq	64(%rax), %rax
	.loc 1 30 24
	movq	48(%rax), %rdx
	.loc 1 30 49
	movq	SystemTable(%rip), %rax
	movq	64(%rax), %rax
	.loc 1 30 5
	movq	%rax, %rcx
	call	*%rdx
.LVL2:
	.loc 1 31 1
	nop
	addq	$32, %rsp
	popq	%rbp
	.cfi_restore 6
	.cfi_def_cfa 7, 8
	ret
	.cfi_endproc
.LFE4:
	.seh_endproc
	.globl	SetColor
	.def	SetColor;	.scl	2;	.type	32;	.endef
	.seh_proc	SetColor
SetColor:
.LFB5:
	.loc 1 34 1
	.cfi_startproc
	pushq	%rbp
	.seh_pushreg	%rbp
	.cfi_def_cfa_offset 16
	.cfi_offset 6, -16
	movq	%rsp, %rbp
	.seh_setframe	%rbp, 0
	.cfi_def_cfa_register 6
	subq	$32, %rsp
	.seh_stackalloc	32
	.seh_endprologue
	movq	%rcx, 16(%rbp)
	.loc 1 35 16
	movq	SystemTable(%rip), %rax
	movq	64(%rax), %rax
	.loc 1 35 24
	movq	40(%rax), %r8
	.loc 1 35 50
	movq	SystemTable(%rip), %rax
	movq	64(%rax), %rax
	.loc 1 35 5
	movq	16(%rbp), %rdx
	movq	%rax, %rcx
	call	*%r8
.LVL3:
	.loc 1 36 1
	nop
	addq	$32, %rsp
	popq	%rbp
	.cfi_restore 6
	.cfi_def_cfa 7, 8
	ret
	.cfi_endproc
.LFE5:
	.seh_endproc
	.globl	Print
	.def	Print;	.scl	2;	.type	32;	.endef
	.seh_proc	Print
Print:
.LFB6:
	.loc 1 39 1
	.cfi_startproc
	pushq	%rbp
	.seh_pushreg	%rbp
	.cfi_def_cfa_offset 16
	.cfi_offset 6, -16
	movq	%rsp, %rbp
	.seh_setframe	%rbp, 0
	.cfi_def_cfa_register 6
	subq	$32, %rsp
	.seh_stackalloc	32
	.seh_endprologue
	movq	%rcx, 16(%rbp)
	.loc 1 40 16
	movq	SystemTable(%rip), %rax
	movq	64(%rax), %rax
	.loc 1 40 24
	movq	8(%rax), %r8
	.loc 1 40 50
	movq	SystemTable(%rip), %rax
	movq	64(%rax), %rax
	.loc 1 40 5
	movq	16(%rbp), %rdx
	movq	%rax, %rcx
	call	*%r8
.LVL4:
	.loc 1 41 1
	nop
	addq	$32, %rsp
	popq	%rbp
	.cfi_restore 6
	.cfi_def_cfa 7, 8
	ret
	.cfi_endproc
.LFE6:
	.seh_endproc
	.globl	strlen
	.def	strlen;	.scl	2;	.type	32;	.endef
	.seh_proc	strlen
strlen:
.LFB7:
	.loc 1 44 1
	.cfi_startproc
	pushq	%rbp
	.seh_pushreg	%rbp
	.cfi_def_cfa_offset 16
	.cfi_offset 6, -16
	movq	%rsp, %rbp
	.seh_setframe	%rbp, 0
	.cfi_def_cfa_register 6
	subq	$16, %rsp
	.seh_stackalloc	16
	.seh_endprologue
	movq	%rcx, 16(%rbp)
	.loc 1 45 14
	movq	16(%rbp), %rax
	movq	%rax, -8(%rbp)
	.loc 1 47 8
	nop
.L7:
	.loc 1 47 18 discriminator 1
	movq	-8(%rbp), %rax
	leaq	1(%rax), %rdx
	movq	%rdx, -8(%rbp)
	.loc 1 47 9 discriminator 1
	movzbl	(%rax), %eax
	testb	%al, %al
	jne	.L7
	.loc 1 48 18
	movq	-8(%rbp), %rax
	subq	16(%rbp), %rax
	.loc 1 48 24
	subq	$1, %rax
	.loc 1 49 1
	addq	$16, %rsp
	popq	%rbp
	.cfi_restore 6
	.cfi_def_cfa 7, 8
	ret
	.cfi_endproc
.LFE7:
	.seh_endproc
	.globl	itoa
	.def	itoa;	.scl	2;	.type	32;	.endef
	.seh_proc	itoa
itoa:
.LFB8:
	.loc 1 52 1
	.cfi_startproc
	pushq	%rbp
	.seh_pushreg	%rbp
	.cfi_def_cfa_offset 16
	.cfi_offset 6, -16
	movq	%rsp, %rbp
	.seh_setframe	%rbp, 0
	.cfi_def_cfa_register 6
	subq	$16, %rsp
	.seh_stackalloc	16
	.seh_endprologue
	movl	%ecx, 16(%rbp)
	movq	%rdx, 24(%rbp)
	movl	%r8d, 32(%rbp)
	.loc 1 55 7
	movl	16(%rbp), %eax
	movl	%eax, -12(%rbp)
	.loc 1 56 4
	movl	$0, -4(%rbp)
.L12:
	.loc 1 59 12
	movl	32(%rbp), %ecx
	.loc 1 59 8
	movl	16(%rbp), %eax
	movl	$0, %edx
	divl	%ecx
	movl	%edx, -12(%rbp)
	.loc 1 60 15
	cmpl	$9, -12(%rbp)
	ja	.L10
	.loc 1 60 37 discriminator 1
	movl	-12(%rbp), %eax
	.loc 1 60 15 discriminator 1
	leal	48(%rax), %edx
	jmp	.L11
.L10:
	.loc 1 60 58 discriminator 2
	movl	-12(%rbp), %eax
	.loc 1 60 15 discriminator 2
	leal	87(%rax), %edx
.L11:
	.loc 1 60 11 discriminator 4
	movl	-4(%rbp), %eax
	leal	1(%rax), %ecx
	movl	%ecx, -4(%rbp)
	cltq
	.loc 1 60 9 discriminator 4
	leaq	(%rax,%rax), %rcx
	movq	24(%rbp), %rax
	addq	%rcx, %rax
	.loc 1 60 15 discriminator 4
	movw	%dx, (%rax)
	.loc 1 61 12
	movl	32(%rbp), %ecx
	movl	16(%rbp), %eax
	movl	$0, %edx
	divl	%ecx
	movl	%eax, 16(%rbp)
	.loc 1 61 10
	cmpl	$0, 16(%rbp)
	jne	.L12
	.loc 1 62 10
	movl	-4(%rbp), %eax
	leal	-1(%rax), %edx
	movl	%edx, -4(%rbp)
	cltq
	.loc 1 62 8
	leaq	(%rax,%rax), %rdx
	movq	24(%rbp), %rax
	addq	%rdx, %rax
	.loc 1 62 14
	movw	$0, (%rax)
	.loc 1 64 8
	movl	$0, -8(%rbp)
	.loc 1 64 2
	jmp	.L13
.L14:
	.loc 1 66 16
	movl	-8(%rbp), %eax
	cltq
	leaq	(%rax,%rax), %rdx
	movq	24(%rbp), %rax
	addq	%rdx, %rax
	movzwl	(%rax), %eax
	.loc 1 66 8
	movzwl	%ax, %eax
	movl	%eax, -12(%rbp)
	.loc 1 67 21
	movl	-4(%rbp), %eax
	cltq
	leaq	(%rax,%rax), %rdx
	movq	24(%rbp), %rax
	addq	%rdx, %rax
	.loc 1 67 9
	movl	-8(%rbp), %edx
	movslq	%edx, %rdx
	leaq	(%rdx,%rdx), %rcx
	movq	24(%rbp), %rdx
	addq	%rcx, %rdx
	.loc 1 67 21
	movzwl	(%rax), %eax
	.loc 1 67 13
	movw	%ax, (%rdx)
	.loc 1 68 9
	movl	-4(%rbp), %eax
	cltq
	leaq	(%rax,%rax), %rdx
	movq	24(%rbp), %rax
	addq	%rdx, %rax
	.loc 1 68 13
	movl	-12(%rbp), %edx
	movw	%dx, (%rax)
	.loc 1 64 21 discriminator 3
	addl	$1, -8(%rbp)
	.loc 1 64 26 discriminator 3
	subl	$1, -4(%rbp)
.L13:
	.loc 1 64 15 discriminator 1
	movl	-8(%rbp), %eax
	cmpl	-4(%rbp), %eax
	jl	.L14
	.loc 1 70 1
	nop
	nop
	addq	$16, %rsp
	popq	%rbp
	.cfi_restore 6
	.cfi_def_cfa 7, 8
	ret
	.cfi_endproc
.LFE8:
	.seh_endproc
	.globl	strcmp
	.def	strcmp;	.scl	2;	.type	32;	.endef
	.seh_proc	strcmp
strcmp:
.LFB9:
	.loc 1 73 1
	.cfi_startproc
	pushq	%rbp
	.seh_pushreg	%rbp
	.cfi_def_cfa_offset 16
	.cfi_offset 6, -16
	movq	%rsp, %rbp
	.seh_setframe	%rbp, 0
	.cfi_def_cfa_register 6
	subq	$48, %rsp
	.seh_stackalloc	48
	.seh_endprologue
	movq	%rcx, 16(%rbp)
	movq	%rdx, 24(%rbp)
	.loc 1 74 15
	movq	16(%rbp), %rax
	movq	%rax, %rcx
	call	strlen
	.loc 1 74 6 discriminator 1
	movl	%eax, -8(%rbp)
.LBB2:
	.loc 1 75 10
	movl	$0, -4(%rbp)
	.loc 1 75 2
	jmp	.L16
.L20:
	.loc 1 77 7
	movl	-4(%rbp), %eax
	movslq	%eax, %rdx
	movq	16(%rbp), %rax
	addq	%rdx, %rax
	movzbl	(%rax), %edx
	.loc 1 77 14
	movl	-4(%rbp), %eax
	movslq	%eax, %rcx
	movq	24(%rbp), %rax
	addq	%rcx, %rax
	movzbl	(%rax), %eax
	.loc 1 77 5
	cmpb	%al, %dl
	jge	.L17
	.loc 1 77 26 discriminator 1
	movl	$-1, %eax
	.loc 1 77 26 is_stmt 0
	jmp	.L18
.L17:
	.loc 1 78 7 is_stmt 1
	movl	-4(%rbp), %eax
	movslq	%eax, %rdx
	movq	16(%rbp), %rax
	addq	%rdx, %rax
	movzbl	(%rax), %edx
	.loc 1 78 14
	movl	-4(%rbp), %eax
	movslq	%eax, %rcx
	movq	24(%rbp), %rax
	addq	%rcx, %rax
	movzbl	(%rax), %eax
	.loc 1 78 5
	cmpb	%al, %dl
	jle	.L19
	.loc 1 78 26 discriminator 1
	movl	$1, %eax
	.loc 1 78 26 is_stmt 0
	jmp	.L18
.L19:
	.loc 1 75 30 is_stmt 1 discriminator 2
	addl	$1, -4(%rbp)
.L16:
	.loc 1 75 19 discriminator 1
	movl	-4(%rbp), %eax
	cmpl	-8(%rbp), %eax
	jl	.L20
.LBE2:
	.loc 1 80 9
	movl	$0, %eax
.L18:
	.loc 1 81 1
	addq	$48, %rsp
	popq	%rbp
	.cfi_restore 6
	.cfi_def_cfa 7, 8
	ret
	.cfi_endproc
.LFE9:
	.seh_endproc
	.globl	bi
	.bss
	.align 32
bi:
	.space 68
	.section .rdata,"dr"
	.align 2
.LC0:
	.ascii "I\0m\0a\0g\0e\0 \0B\0a\0s\0e\0:\0 \0\15\0\12\0\0\0"
	.align 2
.LC1:
	.ascii "0\0x\0\0\0"
	.align 2
.LC2:
	.ascii "\15\0\12\0\0\0"
	.align 8
.LC3:
	.ascii "I\0m\0a\0g\0e\0 \0B\0a\0s\0e\0 \0w\0i\0t\0h\0 \0a\0m\0p\0e\0r\0s\0a\0n\0d\0:\0 \0\15\0\12\0\0\0"
	.align 8
.LC4:
	.ascii "L\0o\0a\0d\0i\0n\0g\0 \0R\0o\0o\0t\0 \0F\0i\0l\0e\0 \0S\0y\0s\0t\0e\0m\0 \0F\0A\0I\0L\0E\0D\0!\0\15\0\12\0\0\0"
	.align 8
.LC5:
	.ascii "V\0o\0l\0u\0m\0e\0 \0H\0a\0n\0d\0l\0e\0 \0F\0A\0I\0L\0E\0D\0!\0\15\0\12\0\0\0"
	.align 8
.LC6:
	.ascii "D\0e\0v\0i\0c\0e\0P\0a\0t\0h\0 \0F\0A\0I\0L\0E\0D\0!\0\15\0\12\0\0\0"
	.align 8
.LC7:
	.ascii "L\0o\0a\0d\0e\0d\0I\0m\0a\0g\0e\0 \0F\0A\0I\0L\0E\0D\0!\0\15\0\12\0\0\0"
	.text
	.globl	InitializeFILESYSTEM
	.def	InitializeFILESYSTEM;	.scl	2;	.type	32;	.endef
	.seh_proc	InitializeFILESYSTEM
InitializeFILESYSTEM:
.LFB10:
	.loc 1 100 1
	.cfi_startproc
	pushq	%rbp
	.seh_pushreg	%rbp
	.cfi_def_cfa_offset 16
	.cfi_offset 6, -16
	movq	%rsp, %rbp
	.seh_setframe	%rbp, 0
	.cfi_def_cfa_register 6
	subq	$80, %rsp
	.seh_stackalloc	80
	.seh_endprologue
	.loc 1 104 20
	movq	SystemTable(%rip), %rax
	movq	96(%rax), %rax
	.loc 1 104 34
	movq	152(%rax), %r9
	.loc 1 104 9
	movq	ImageHandle(%rip), %rax
	leaq	-8(%rbp), %rdx
	movq	%rdx, %r8
	leaq	EFI_LOADED_IMAGE_PROTOCOL_GUID(%rip), %rdx
	movq	%rax, %rcx
	call	*%r9
.LVL5:
	.loc 1 104 7 discriminator 1
	testq	%rax, %rax
	jne	.L22
.LBB3:
	.loc 1 107 3
	leaq	.LC0(%rip), %rax
	movq	%rax, %rcx
	call	Print
	.loc 1 108 40
	movq	-8(%rbp), %rax
	movq	64(%rax), %rax
	.loc 1 108 3
	movl	(%rax), %eax
	leaq	-48(%rbp), %rdx
	movl	$16, %r8d
	movl	%eax, %ecx
	call	itoa
	.loc 1 109 3
	leaq	.LC1(%rip), %rax
	movq	%rax, %rcx
	call	Print
	.loc 1 110 6
	leaq	-48(%rbp), %rax
	movq	%rax, %rcx
	call	Print
	.loc 1 111 3
	leaq	.LC2(%rip), %rax
	movq	%rax, %rcx
	call	Print
	.loc 1 113 3
	leaq	.LC3(%rip), %rax
	movq	%rax, %rcx
	call	Print
	.loc 1 114 41
	movq	-8(%rbp), %rax
	.loc 1 114 29
	addq	$64, %rax
	.loc 1 114 3
	movl	(%rax), %eax
	leaq	-48(%rbp), %rdx
	movl	$16, %r8d
	movl	%eax, %ecx
	call	itoa
	.loc 1 115 3
	leaq	.LC1(%rip), %rax
	movq	%rax, %rcx
	call	Print
	.loc 1 116 6
	leaq	-48(%rbp), %rax
	movq	%rax, %rcx
	call	Print
	.loc 1 117 3
	leaq	.LC2(%rip), %rax
	movq	%rax, %rcx
	call	Print
	.loc 1 120 18
	movq	SystemTable(%rip), %rax
	movq	96(%rax), %rax
	.loc 1 120 32
	movq	152(%rax), %r9
	.loc 1 120 60
	movq	-8(%rbp), %rax
	.loc 1 120 7
	movq	24(%rax), %rax
	leaq	-16(%rbp), %rdx
	movq	%rdx, %r8
	leaq	EFI_DEVICE_PATH_PROTOCOL_GUID(%rip), %rdx
	movq	%rax, %rcx
	call	*%r9
.LVL6:
	.loc 1 120 5 discriminator 1
	testq	%rax, %rax
	jne	.L23
	.loc 1 122 19
	movq	SystemTable(%rip), %rax
	movq	96(%rax), %rax
	.loc 1 122 33
	movq	152(%rax), %r9
	.loc 1 122 61
	movq	-8(%rbp), %rax
	.loc 1 122 8
	movq	24(%rax), %rax
	leaq	Volume(%rip), %r8
	leaq	EFI_SIMPLE_FILE_SYSTEM_PROTOCOL_GUID(%rip), %rdx
	movq	%rax, %rcx
	call	*%r9
.LVL7:
	.loc 1 122 6 discriminator 1
	testq	%rax, %rax
	jne	.L24
	.loc 1 124 15
	movq	Volume(%rip), %rax
	movq	8(%rax), %r8
	.loc 1 124 9
	movq	Volume(%rip), %rax
	leaq	RootFS(%rip), %rdx
	movq	%rax, %rcx
	call	*%r8
.LVL8:
	.loc 1 124 7 discriminator 1
	testq	%rax, %rax
	je	.L27
	.loc 1 126 6
	leaq	.LC4(%rip), %rax
	movq	%rax, %rcx
	call	Print
.LBE3:
	.loc 1 137 1
	jmp	.L27
.L24:
.LBB4:
	.loc 1 129 11
	leaq	.LC5(%rip), %rax
	movq	%rax, %rcx
	call	Print
.LBE4:
	.loc 1 137 1
	jmp	.L27
.L23:
.LBB5:
	.loc 1 132 7
	leaq	.LC6(%rip), %rax
	movq	%rax, %rcx
	call	Print
.LBE5:
	.loc 1 137 1
	jmp	.L27
.L22:
	.loc 1 135 3
	leaq	.LC7(%rip), %rax
	movq	%rax, %rcx
	call	Print
.L27:
	.loc 1 137 1
	nop
	addq	$80, %rsp
	popq	%rbp
	.cfi_restore 6
	.cfi_def_cfa 7, 8
	ret
	.cfi_endproc
.LFE10:
	.seh_endproc
	.section .rdata,"dr"
	.align 8
.LC8:
	.ascii "W\0A\0R\0N\0I\0N\0G\0 \0:\0 \0U\0n\0a\0b\0l\0e\0 \0t\0o\0 \0f\0i\0n\0d\0 \0F\0i\0l\0e\0.\0\15\0\12\0\0\0"
	.text
	.globl	getFile
	.def	getFile;	.scl	2;	.type	32;	.endef
	.seh_proc	getFile
getFile:
.LFB11:
	.loc 1 140 1
	.cfi_startproc
	pushq	%rbp
	.seh_pushreg	%rbp
	.cfi_def_cfa_offset 16
	.cfi_offset 6, -16
	movq	%rsp, %rbp
	.seh_setframe	%rbp, 0
	.cfi_def_cfa_register 6
	subq	$64, %rsp
	.seh_stackalloc	64
	.seh_endprologue
	movq	%rcx, 16(%rbp)
	.loc 1 144 24
	movq	$0, -8(%rbp)
	.loc 1 145 15
	movq	RootFS(%rip), %rax
	movq	8(%rax), %r10
	.loc 1 145 9
	movq	RootFS(%rip), %rax
	movq	16(%rbp), %rcx
	leaq	-8(%rbp), %rdx
	movq	$0, 32(%rsp)
	movl	$3, %r9d
	movq	%rcx, %r8
	movq	%rax, %rcx
	call	*%r10
.LVL9:
	.loc 1 145 7 discriminator 1
	movabsq	$-9223372036854775794, %rdx
	cmpq	%rdx, %rax
	jne	.L29
	.loc 1 147 3
	movl	$3, %ecx
	call	SetColor
	.loc 1 148 3
	leaq	.LC8(%rip), %rax
	movq	%rax, %rcx
	call	Print
.L29:
	.loc 1 151 12
	movq	-8(%rbp), %rax
	.loc 1 152 1
	addq	$64, %rsp
	popq	%rbp
	.cfi_restore 6
	.cfi_def_cfa 7, 8
	ret
	.cfi_endproc
.LFE11:
	.seh_endproc
	.section .rdata,"dr"
	.align 8
.LC9:
	.ascii "W\0A\0R\0N\0I\0N\0G\0 \0:\0 \0U\0n\0a\0b\0l\0e\0 \0t\0o\0 \0f\0i\0n\0d\0 \0D\0i\0r\0e\0c\0t\0o\0r\0y\0.\0\15\0\12\0\0\0"
	.text
	.globl	getDir
	.def	getDir;	.scl	2;	.type	32;	.endef
	.seh_proc	getDir
getDir:
.LFB12:
	.loc 1 155 1
	.cfi_startproc
	pushq	%rbp
	.seh_pushreg	%rbp
	.cfi_def_cfa_offset 16
	.cfi_offset 6, -16
	movq	%rsp, %rbp
	.seh_setframe	%rbp, 0
	.cfi_def_cfa_register 6
	subq	$64, %rsp
	.seh_stackalloc	64
	.seh_endprologue
	movq	%rcx, 16(%rbp)
	.loc 1 156 24
	movq	$0, -8(%rbp)
	.loc 1 157 15
	movq	RootFS(%rip), %rax
	movq	8(%rax), %r10
	.loc 1 157 9
	movq	RootFS(%rip), %rax
	movq	16(%rbp), %rcx
	leaq	-8(%rbp), %rdx
	movq	$16, 32(%rsp)
	movl	$3, %r9d
	movq	%rcx, %r8
	movq	%rax, %rcx
	call	*%r10
.LVL10:
	.loc 1 157 7 discriminator 1
	movabsq	$-9223372036854775794, %rdx
	cmpq	%rdx, %rax
	jne	.L32
	.loc 1 159 3
	movl	$3, %ecx
	call	SetColor
	.loc 1 160 3
	leaq	.LC9(%rip), %rax
	movq	%rax, %rcx
	call	Print
.L32:
	.loc 1 163 12
	movq	-8(%rbp), %rax
	.loc 1 164 1
	addq	$64, %rsp
	popq	%rbp
	.cfi_restore 6
	.cfi_def_cfa 7, 8
	ret
	.cfi_endproc
.LFE12:
	.seh_endproc
	.section .rdata,"dr"
	.align 8
.LC10:
	.ascii "C\0l\0o\0s\0i\0n\0g\0 \0F\0i\0l\0e\0 \0H\0a\0n\0d\0l\0e\0 \0F\0A\0I\0L\0E\0D\0\15\0\12\0\0\0"
	.text
	.globl	closeFile
	.def	closeFile;	.scl	2;	.type	32;	.endef
	.seh_proc	closeFile
closeFile:
.LFB13:
	.loc 1 167 1
	.cfi_startproc
	pushq	%rbp
	.seh_pushreg	%rbp
	.cfi_def_cfa_offset 16
	.cfi_offset 6, -16
	movq	%rsp, %rbp
	.seh_setframe	%rbp, 0
	.cfi_def_cfa_register 6
	subq	$32, %rsp
	.seh_stackalloc	32
	.seh_endprologue
	movq	%rcx, 16(%rbp)
	.loc 1 168 19
	movq	16(%rbp), %rax
	movq	16(%rax), %rdx
	.loc 1 168 9
	movq	16(%rbp), %rax
	movq	%rax, %rcx
	call	*%rdx
.LVL11:
	.loc 1 168 7 discriminator 1
	testq	%rax, %rax
	je	.L36
	.loc 1 170 9
	movl	$6, %ecx
	call	SetColor
	.loc 1 171 9
	leaq	.LC10(%rip), %rax
	movq	%rax, %rcx
	call	Print
.L36:
	.loc 1 173 1
	nop
	addq	$32, %rsp
	popq	%rbp
	.cfi_restore 6
	.cfi_def_cfa 7, 8
	ret
	.cfi_endproc
.LFE13:
	.seh_endproc
	.section .rdata,"dr"
	.align 8
.LC11:
	.ascii "C\0l\0o\0s\0i\0n\0g\0 \0D\0i\0r\0e\0c\0t\0o\0r\0y\0 \0H\0a\0n\0d\0l\0e\0 \0F\0A\0I\0L\0E\0D\0\15\0\12\0\0\0"
	.text
	.globl	closeDir
	.def	closeDir;	.scl	2;	.type	32;	.endef
	.seh_proc	closeDir
closeDir:
.LFB14:
	.loc 1 176 1
	.cfi_startproc
	pushq	%rbp
	.seh_pushreg	%rbp
	.cfi_def_cfa_offset 16
	.cfi_offset 6, -16
	movq	%rsp, %rbp
	.seh_setframe	%rbp, 0
	.cfi_def_cfa_register 6
	subq	$32, %rsp
	.seh_stackalloc	32
	.seh_endprologue
	movq	%rcx, 16(%rbp)
	.loc 1 177 19
	movq	16(%rbp), %rax
	movq	16(%rax), %rdx
	.loc 1 177 9
	movq	16(%rbp), %rax
	movq	%rax, %rcx
	call	*%rdx
.LVL12:
	.loc 1 177 7 discriminator 1
	testq	%rax, %rax
	je	.L39
	.loc 1 179 3
	movl	$6, %ecx
	call	SetColor
	.loc 1 180 3
	leaq	.LC11(%rip), %rax
	movq	%rax, %rcx
	call	Print
.L39:
	.loc 1 182 1
	nop
	addq	$32, %rsp
	popq	%rbp
	.cfi_restore 6
	.cfi_def_cfa 7, 8
	ret
	.cfi_endproc
.LFE14:
	.seh_endproc
	.section .rdata,"dr"
	.align 8
.LC12:
	.ascii "W\0A\0R\0N\0I\0N\0G\0 \0:\0 \0U\0n\0a\0b\0l\0e\0 \0t\0o\0 \0c\0r\0e\0a\0t\0e\0 \0f\0i\0l\0e\0.\0 \0P\0l\0e\0a\0s\0e\0 \0c\0h\0e\0c\0k\0 \0y\0o\0u\0r\0 \0p\0a\0t\0h\0.\0\15\0\12\0\0\0"
	.text
	.globl	createFile
	.def	createFile;	.scl	2;	.type	32;	.endef
	.seh_proc	createFile
createFile:
.LFB15:
	.loc 1 185 1
	.cfi_startproc
	pushq	%rbp
	.seh_pushreg	%rbp
	.cfi_def_cfa_offset 16
	.cfi_offset 6, -16
	movq	%rsp, %rbp
	.seh_setframe	%rbp, 0
	.cfi_def_cfa_register 6
	subq	$64, %rsp
	.seh_stackalloc	64
	.seh_endprologue
	movq	%rcx, 16(%rbp)
	.loc 1 186 24
	movq	$0, -8(%rbp)
	.loc 1 187 15
	movq	RootFS(%rip), %rax
	movq	8(%rax), %r10
	.loc 1 187 9
	movq	RootFS(%rip), %rax
	movq	16(%rbp), %rcx
	leaq	-8(%rbp), %rdx
	movq	$0, 32(%rsp)
	movabsq	$-9223372036854775805, %r9
	movq	%rcx, %r8
	movq	%rax, %rcx
	call	*%r10
.LVL13:
	.loc 1 187 7 discriminator 1
	movabsq	$-9223372036854775794, %rdx
	cmpq	%rdx, %rax
	jne	.L41
	.loc 1 189 3
	movl	$3, %ecx
	call	SetColor
	.loc 1 190 3
	leaq	.LC12(%rip), %rax
	movq	%rax, %rcx
	call	Print
.L41:
	.loc 1 193 12
	movq	-8(%rbp), %rax
	.loc 1 194 1
	addq	$64, %rsp
	popq	%rbp
	.cfi_restore 6
	.cfi_def_cfa 7, 8
	ret
	.cfi_endproc
.LFE15:
	.seh_endproc
	.globl	ENTRY_POINT
	.bss
	.align 4
ENTRY_POINT:
	.space 4
	.globl	OSBuffer_Handle
	.align 8
OSBuffer_Handle:
	.space 8
	.section .rdata,"dr"
	.align 8
.LC13:
	.ascii "F\0u\0n\0c\0t\0i\0o\0n\0 \0r\0e\0a\0d\0F\0i\0l\0e\0 \0S\0t\0a\0r\0t\0e\0d\0\15\0\12\0\0\0"
	.align 8
.LC14:
	.ascii "F\0i\0l\0e\0h\0a\0n\0d\0l\0e\0 \0n\0o\0t\0 \0n\0u\0l\0l\0\15\0\12\0\0\0"
	.align 8
.LC15:
	.ascii "A\0l\0l\0o\0c\0a\0t\0i\0n\0g\0 \0P\0o\0o\0l\0 \0F\0A\0I\0L\0E\0D\0\15\0\12\0\0\0"
	.align 8
.LC16:
	.ascii "R\0e\0a\0d\0i\0n\0g\0 \0F\0i\0l\0e\0 \0F\0A\0I\0L\0E\0D\0\15\0\12\0\0\0"
	.align 8
.LC17:
	.ascii " \0 \0 \0 \0 \0 \0 \0 \0 \0 \0D\0y\0n\0a\0m\0i\0c\0 \0F\0i\0l\0e\0 \0S\0i\0g\0n\0a\0t\0u\0r\0e\0\15\0\12\0\0\0"
	.align 8
.LC18:
	.ascii " \0 \0 \0 \0 \0 \0 \0 \0 \0 \0B\0I\0N\0A\0R\0Y\0 \0-\0 \0"
	.ascii "8\0"
	.ascii "6\0"
	.ascii "6\0"
	.ascii "4\0 \0S\0i\0g\0n\0a\0t\0u\0r\0e\0\15\0\12\0\15\0\12\0\15\0\12\0\15\0\12\0\0\0"
	.align 2
.LC19:
	.ascii " \0 \0\0\0"
	.align 8
.LC20:
	.ascii " \0 \0\15\0\12\0E\0N\0T\0R\0Y\0 \0P\0O\0I\0N\0T\0 \0:\0 \0\0\0"
	.align 8
.LC21:
	.ascii "E\0L\0F\0 \0-\0 \0"
	.ascii "4\0"
	.ascii "5\0 \0"
	.ascii "4\0C\0 \0"
	.ascii "4\0"
	.ascii "6\0 \0S\0i\0g\0n\0a\0t\0u\0r\0e\0\15\0\12\0\0\0"
	.align 8
.LC22:
	.ascii "A\0d\0d\0 \0y\0o\0u\0r\0 \0o\0w\0n\0 \0c\0o\0d\0e\0 \0+\0 \0t\0h\0e\0 \0E\0L\0F\0 \0H\0e\0a\0d\0e\0r\0 \0f\0i\0l\0e\0 \0t\0o\0 \0m\0a\0k\0e\0 \0t\0h\0i\0s\0 \0w\0o\0r\0k\0.\0\15\0\12\0\0\0"
	.align 8
.LC23:
	.ascii "W\0A\0R\0N\0I\0N\0G\0 \0:\0 \0R\0A\0W\0 \0F\0I\0L\0E\0 \0H\0A\0S\0 \0B\0E\0E\0N\0 \0L\0O\0A\0D\0E\0D\0 \0-\0 \0N\0o\0 \0S\0i\0g\0n\0a\0t\0u\0r\0e\0 \0D\0E\0T\0E\0C\0T\0E\0D\0\15\0\12\0\0\0"
	.text
	.globl	readFile
	.def	readFile;	.scl	2;	.type	32;	.endef
	.seh_proc	readFile
readFile:
.LFB16:
	.loc 1 200 1
	.cfi_startproc
	pushq	%rbp
	.seh_pushreg	%rbp
	.cfi_def_cfa_offset 16
	.cfi_offset 6, -16
	movq	%rsp, %rbp
	.seh_setframe	%rbp, 0
	.cfi_def_cfa_register 6
	subq	$80, %rsp
	.seh_stackalloc	80
	.seh_endprologue
	movq	%rcx, 16(%rbp)
	.loc 1 203 37
	movq	16(%rbp), %rax
	movq	%rax, %rcx
	call	getFile
	movq	%rax, -8(%rbp)
	.loc 1 204 2
	leaq	.LC13(%rip), %rax
	movq	%rax, %rcx
	call	Print
	.loc 1 205 7
	cmpq	$0, -8(%rbp)
	je	.L50
.LBB6:
	.loc 1 207 3
	leaq	.LC14(%rip), %rax
	movq	%rax, %rcx
	call	Print
	.loc 1 209 11
	movq	$0, -16(%rbp)
	.loc 1 210 13
	movq	-8(%rbp), %rax
	movq	56(%rax), %r8
	.loc 1 210 3
	movq	-8(%rbp), %rax
	movq	$-1, %rdx
	movq	%rax, %rcx
	call	*%r8
.LVL14:
	.loc 1 211 13
	movq	-8(%rbp), %rax
	movq	48(%rax), %r8
	.loc 1 211 3
	movq	-16(%rbp), %rdx
	movq	-8(%rbp), %rax
	movq	%rax, %rcx
	call	*%r8
.LVL15:
	.loc 1 212 13
	movq	-8(%rbp), %rax
	movq	56(%rax), %r8
	.loc 1 212 3
	movq	-8(%rbp), %rax
	movl	$0, %edx
	movq	%rax, %rcx
	call	*%r8
.LVL16:
	.loc 1 214 18
	movq	SystemTable(%rip), %rax
	movq	96(%rax), %rax
	.loc 1 214 32
	movq	64(%rax), %r9
	.loc 1 214 7
	movq	-16(%rbp), %rax
	movq	(%rax), %rax
	leaq	OSBuffer_Handle(%rip), %r8
	movq	%rax, %rdx
	movl	$2, %ecx
	call	*%r9
.LVL17:
	.loc 1 214 5 discriminator 1
	testq	%rax, %rax
	je	.L45
	.loc 1 216 4
	movl	$6, %ecx
	call	SetColor
	.loc 1 217 4
	leaq	.LC15(%rip), %rax
	movq	%rax, %rcx
	call	Print
.L45:
	.loc 1 220 13
	movq	-8(%rbp), %rax
	movq	56(%rax), %r8
	.loc 1 220 3
	movq	-8(%rbp), %rax
	movl	$0, %edx
	movq	%rax, %rcx
	call	*%r8
.LVL18:
	.loc 1 222 23
	movq	-8(%rbp), %rax
	movq	32(%rax), %r9
	.loc 1 222 13
	movq	OSBuffer_Handle(%rip), %rcx
	movq	-16(%rbp), %rdx
	movq	-8(%rbp), %rax
	movq	%rcx, %r8
	movq	%rax, %rcx
	call	*%r9
.LVL19:
	.loc 1 222 11 discriminator 1
	testq	%rax, %rax
	je	.L46
	.loc 1 224 4
	movl	$6, %ecx
	call	SetColor
	.loc 1 225 4
	leaq	.LC16(%rip), %rax
	movq	%rax, %rcx
	call	Print
.L46:
	.loc 1 228 3
	movl	$11, %ecx
	call	SetColor
	.loc 1 229 3
	leaq	.LC17(%rip), %rax
	movq	%rax, %rcx
	call	Print
	.loc 1 230 3
	movl	$6, %ecx
	call	SetColor
	.loc 1 231 10
	movq	OSBuffer_Handle(%rip), %rax
	movq	%rax, -24(%rbp)
	.loc 1 237 6
	movq	-24(%rbp), %rax
	movzbl	(%rax), %eax
	movb	%al, -25(%rbp)
	.loc 1 238 8
	addq	$1, -24(%rbp)
	.loc 1 239 6
	movq	-24(%rbp), %rax
	movzbl	(%rax), %eax
	movb	%al, -26(%rbp)
	.loc 1 240 8
	addq	$1, -24(%rbp)
	.loc 1 241 6
	movq	-24(%rbp), %rax
	movzbl	(%rax), %eax
	movb	%al, -27(%rbp)
	.loc 1 242 8
	addq	$1, -24(%rbp)
	.loc 1 243 6
	movq	-24(%rbp), %rax
	movzbl	(%rax), %eax
	movb	%al, -28(%rbp)
	.loc 1 245 5
	cmpb	$100, -25(%rbp)
	jne	.L47
	.loc 1 245 16 discriminator 1
	cmpb	$-122, -26(%rbp)
	jne	.L47
.LBB7:
	.loc 1 247 4
	leaq	.LC18(%rip), %rax
	movq	%rax, %rcx
	call	Print
	.loc 1 248 4
	movl	$15, %ecx
	call	SetColor
	.loc 1 249 9
	addq	$37, -24(%rbp)
	.loc 1 250 7
	movq	-24(%rbp), %rax
	movzbl	(%rax), %eax
	movb	%al, -25(%rbp)
	.loc 1 251 9
	addq	$1, -24(%rbp)
	.loc 1 252 7
	movq	-24(%rbp), %rax
	movzbl	(%rax), %eax
	movb	%al, -26(%rbp)
	.loc 1 253 9
	addq	$1, -24(%rbp)
	.loc 1 254 7
	movq	-24(%rbp), %rax
	movzbl	(%rax), %eax
	movb	%al, -27(%rbp)
	.loc 1 255 9
	addq	$1, -24(%rbp)
	.loc 1 256 7
	movq	-24(%rbp), %rax
	movzbl	(%rax), %eax
	movb	%al, -28(%rbp)
	.loc 1 259 5
	movzbl	-25(%rbp), %eax
	leaq	-32(%rbp), %rdx
	movl	$16, %r8d
	movl	%eax, %ecx
	call	itoa
	.loc 1 260 5
	leaq	-32(%rbp), %rax
	movq	%rax, %rcx
	call	Print
	.loc 1 261 5
	leaq	.LC19(%rip), %rax
	movq	%rax, %rcx
	call	Print
	.loc 1 263 5
	movzbl	-26(%rbp), %eax
	leaq	-32(%rbp), %rdx
	movl	$16, %r8d
	movl	%eax, %ecx
	call	itoa
	.loc 1 264 5
	leaq	-32(%rbp), %rax
	movq	%rax, %rcx
	call	Print
	.loc 1 265 5
	leaq	.LC19(%rip), %rax
	movq	%rax, %rcx
	call	Print
	.loc 1 267 5
	movzbl	-27(%rbp), %eax
	leaq	-32(%rbp), %rdx
	movl	$16, %r8d
	movl	%eax, %ecx
	call	itoa
	.loc 1 268 5
	leaq	-32(%rbp), %rax
	movq	%rax, %rcx
	call	Print
	.loc 1 269 5
	leaq	.LC19(%rip), %rax
	movq	%rax, %rcx
	call	Print
	.loc 1 271 5
	movzbl	-28(%rbp), %eax
	leaq	-32(%rbp), %rdx
	movl	$16, %r8d
	movl	%eax, %ecx
	call	itoa
	.loc 1 272 5
	leaq	-32(%rbp), %rax
	movq	%rax, %rcx
	call	Print
	.loc 1 273 5
	movl	$6, %ecx
	call	SetColor
	.loc 1 274 5
	leaq	.LC20(%rip), %rax
	movq	%rax, %rcx
	call	Print
	.loc 1 275 5
	movl	$2, %ecx
	call	SetColor
	.loc 1 277 35
	movzbl	-28(%rbp), %eax
	sall	$24, %eax
	movl	%eax, %edx
	.loc 1 277 48
	movzbl	-27(%rbp), %eax
	sall	$16, %eax
	.loc 1 277 42
	orl	%eax, %edx
	.loc 1 277 61
	movzbl	-26(%rbp), %eax
	sall	$8, %eax
	.loc 1 277 55
	orl	%eax, %edx
	.loc 1 277 67
	movzbl	-25(%rbp), %eax
	orl	%edx, %eax
	.loc 1 277 29
	movl	%eax, ENTRY_POINT(%rip)
	.loc 1 280 5
	movl	ENTRY_POINT(%rip), %eax
	leaq	-42(%rbp), %rdx
	movl	$10, %r8d
	movl	%eax, %ecx
	call	itoa
	.loc 1 281 5
	leaq	-42(%rbp), %rax
	movq	%rax, %rcx
	call	Print
	.loc 1 282 5
	leaq	.LC19(%rip), %rax
	movq	%rax, %rcx
	call	Print
.LBE7:
	.loc 1 246 3
	jmp	.L48
.L47:
	.loc 1 284 10
	cmpb	$69, -26(%rbp)
	jne	.L49
	.loc 1 284 20 discriminator 1
	cmpb	$76, -27(%rbp)
	jne	.L49
	.loc 1 284 32 discriminator 2
	cmpb	$70, -28(%rbp)
	jne	.L49
	.loc 1 286 4
	leaq	.LC21(%rip), %rax
	movq	%rax, %rcx
	call	Print
	.loc 1 287 4
	leaq	.LC22(%rip), %rax
	movq	%rax, %rcx
	call	Print
	jmp	.L48
.L49:
	.loc 1 289 16
	movl	$0, ENTRY_POINT(%rip)
	.loc 1 290 4
	leaq	.LC23(%rip), %rax
	movq	%rax, %rcx
	call	Print
.L48:
	.loc 1 293 9
	movq	-8(%rbp), %rax
	movq	%rax, %rcx
	call	closeFile
	.loc 1 294 26
	movq	-16(%rbp), %rax
	movq	(%rax), %rax
	.loc 1 294 24
	movq	%rax, 28+bi(%rip)
.L50:
.LBE6:
	.loc 1 296 1
	nop
	addq	$80, %rsp
	popq	%rbp
	.cfi_restore 6
	.cfi_def_cfa 7, 8
	ret
	.cfi_endproc
.LFE16:
	.seh_endproc
	.section .rdata,"dr"
	.align 8
.LC24:
	.ascii "D\0e\0l\0e\0t\0i\0n\0g\0 \0D\0i\0r\0e\0c\0t\0o\0r\0y\0 \0F\0A\0I\0L\0E\0D\0\15\0\12\0\0\0"
	.text
	.globl	removeDir
	.def	removeDir;	.scl	2;	.type	32;	.endef
	.seh_proc	removeDir
removeDir:
.LFB17:
	.loc 1 299 1
	.cfi_startproc
	pushq	%rbp
	.seh_pushreg	%rbp
	.cfi_def_cfa_offset 16
	.cfi_offset 6, -16
	movq	%rsp, %rbp
	.seh_setframe	%rbp, 0
	.cfi_def_cfa_register 6
	subq	$48, %rsp
	.seh_stackalloc	48
	.seh_endprologue
	movq	%rcx, 16(%rbp)
	.loc 1 300 34
	movq	16(%rbp), %rax
	movq	%rax, %rcx
	call	getDir
	movq	%rax, -8(%rbp)
	.loc 1 301 4
	cmpq	$0, -8(%rbp)
	je	.L53
	.loc 1 303 17
	movq	-8(%rbp), %rax
	movq	24(%rax), %rdx
	.loc 1 303 7
	movq	-8(%rbp), %rax
	movq	%rax, %rcx
	call	*%rdx
.LVL20:
	.loc 1 303 5 discriminator 1
	testq	%rax, %rax
	je	.L53
	.loc 1 305 4
	movl	$6, %ecx
	call	SetColor
	.loc 1 306 7
	leaq	.LC24(%rip), %rax
	movq	%rax, %rcx
	call	Print
.L53:
	.loc 1 309 1
	nop
	addq	$48, %rsp
	popq	%rbp
	.cfi_restore 6
	.cfi_def_cfa 7, 8
	ret
	.cfi_endproc
.LFE17:
	.seh_endproc
	.section .rdata,"dr"
	.align 8
.LC25:
	.ascii "C\0r\0e\0a\0t\0i\0n\0g\0 \0D\0i\0r\0e\0c\0t\0o\0r\0y\0 \0F\0A\0I\0L\0E\0D\0\15\0\12\0\0\0"
	.text
	.globl	makeDir
	.def	makeDir;	.scl	2;	.type	32;	.endef
	.seh_proc	makeDir
makeDir:
.LFB18:
	.loc 1 312 1
	.cfi_startproc
	pushq	%rbp
	.seh_pushreg	%rbp
	.cfi_def_cfa_offset 16
	.cfi_offset 6, -16
	movq	%rsp, %rbp
	.seh_setframe	%rbp, 0
	.cfi_def_cfa_register 6
	subq	$64, %rsp
	.seh_stackalloc	64
	.seh_endprologue
	movq	%rcx, 16(%rbp)
	.loc 1 313 24
	movq	$0, -8(%rbp)
	.loc 1 315 15
	movq	RootFS(%rip), %rax
	movq	8(%rax), %r10
	.loc 1 315 9
	movq	RootFS(%rip), %rax
	movq	16(%rbp), %rcx
	leaq	-8(%rbp), %rdx
	movq	$16, 32(%rsp)
	movabsq	$-9223372036854775805, %r9
	movq	%rcx, %r8
	movq	%rax, %rcx
	call	*%r10
.LVL21:
	.loc 1 315 7 discriminator 1
	testq	%rax, %rax
	je	.L55
	.loc 1 317 3
	movl	$6, %ecx
	call	SetColor
	.loc 1 318 3
	leaq	.LC25(%rip), %rax
	movq	%rax, %rcx
	call	Print
.L55:
	.loc 1 320 2
	movq	-8(%rbp), %rax
	movq	%rax, %rcx
	call	closeDir
	.loc 1 321 1
	nop
	addq	$64, %rsp
	popq	%rbp
	.cfi_restore 6
	.cfi_def_cfa 7, 8
	ret
	.cfi_endproc
.LFE18:
	.seh_endproc
	.section .rdata,"dr"
	.align 8
.LC26:
	.ascii "D\0e\0l\0e\0t\0i\0n\0g\0 \0F\0i\0l\0e\0 \0F\0A\0I\0L\0E\0D\0\15\0\12\0\0\0"
	.text
	.globl	deleteFile
	.def	deleteFile;	.scl	2;	.type	32;	.endef
	.seh_proc	deleteFile
deleteFile:
.LFB19:
	.loc 1 324 1
	.cfi_startproc
	pushq	%rbp
	.seh_pushreg	%rbp
	.cfi_def_cfa_offset 16
	.cfi_offset 6, -16
	movq	%rsp, %rbp
	.seh_setframe	%rbp, 0
	.cfi_def_cfa_register 6
	subq	$48, %rsp
	.seh_stackalloc	48
	.seh_endprologue
	movq	%rcx, 16(%rbp)
	.loc 1 325 34
	movq	16(%rbp), %rax
	movq	%rax, %rcx
	call	getFile
	movq	%rax, -8(%rbp)
	.loc 1 326 4
	cmpq	$0, -8(%rbp)
	je	.L59
	.loc 1 328 17
	movq	-8(%rbp), %rax
	movq	24(%rax), %rdx
	.loc 1 328 7
	movq	-8(%rbp), %rax
	movq	%rax, %rcx
	call	*%rdx
.LVL22:
	.loc 1 328 5 discriminator 1
	testq	%rax, %rax
	je	.L58
	.loc 1 329 3
	movl	$6, %ecx
	call	SetColor
.L58:
	.loc 1 330 3
	leaq	.LC26(%rip), %rax
	movq	%rax, %rcx
	call	Print
.L59:
	.loc 1 332 1
	nop
	addq	$48, %rsp
	popq	%rbp
	.cfi_restore 6
	.cfi_def_cfa 7, 8
	ret
	.cfi_endproc
.LFE19:
	.seh_endproc
	.section .rdata,"dr"
	.align 8
.LC27:
	.ascii "W\0r\0i\0t\0i\0n\0g\0 \0t\0o\0 \0F\0i\0l\0e\0 \0F\0A\0I\0L\0E\0D\0\15\0\12\0\0\0"
	.text
	.globl	WriteToFile
	.def	WriteToFile;	.scl	2;	.type	32;	.endef
	.seh_proc	WriteToFile
WriteToFile:
.LFB20:
	.loc 1 335 1
	.cfi_startproc
	pushq	%rbp
	.seh_pushreg	%rbp
	.cfi_def_cfa_offset 16
	.cfi_offset 6, -16
	movq	%rsp, %rbp
	.seh_setframe	%rbp, 0
	.cfi_def_cfa_register 6
	subq	$48, %rsp
	.seh_stackalloc	48
	.seh_endprologue
	movq	%rcx, 16(%rbp)
	movq	%rdx, 24(%rbp)
	.loc 1 336 20
	movq	16(%rbp), %rax
	movq	%rax, %rcx
	call	strlen
	.loc 1 336 9 discriminator 1
	movq	%rax, -16(%rbp)
	.loc 1 337 39
	movq	24(%rbp), %rax
	movq	%rax, %rcx
	call	createFile
	movq	%rax, -8(%rbp)
	.loc 1 338 4
	cmpq	$0, -8(%rbp)
	je	.L63
	.loc 1 340 22
	movq	-8(%rbp), %rax
	movq	40(%rax), %r9
	.loc 1 340 7
	movq	16(%rbp), %rcx
	leaq	-16(%rbp), %rdx
	movq	-8(%rbp), %rax
	movq	%rcx, %r8
	movq	%rax, %rcx
	call	*%r9
.LVL23:
	.loc 1 340 5 discriminator 1
	testq	%rax, %rax
	je	.L62
	.loc 1 342 4
	movl	$6, %ecx
	call	SetColor
	.loc 1 343 4
	leaq	.LC27(%rip), %rax
	movq	%rax, %rcx
	call	Print
.L62:
	.loc 1 345 3
	movq	-8(%rbp), %rax
	movq	%rax, %rcx
	call	closeFile
.L63:
	.loc 1 347 1
	nop
	addq	$48, %rsp
	popq	%rbp
	.cfi_restore 6
	.cfi_def_cfa 7, 8
	ret
	.cfi_endproc
.LFE20:
	.seh_endproc
	.section .rdata,"dr"
	.align 8
.LC28:
	.ascii " \0 \0 \0 \0 \0 \0 \0 \0 \0 \0D\0u\0r\0i\0n\0g\0 \0t\0h\0e\0 \0t\0e\0s\0t\0i\0n\0g\0 \0p\0h\0a\0s\0e\0 \0w\0e\0 \0w\0i\0l\0l\0 \0u\0s\0e\0 \0t\0h\0e\0 \0d\0e\0f\0a\0u\0l\0t\0 \0G\0O\0P\0.\0\15\0\12\0\0\0"
	.text
	.globl	InitializeGOP
	.def	InitializeGOP;	.scl	2;	.type	32;	.endef
	.seh_proc	InitializeGOP
InitializeGOP:
.LFB21:
	.loc 1 350 1
	.cfi_startproc
	pushq	%rbp
	.seh_pushreg	%rbp
	.cfi_def_cfa_offset 16
	.cfi_offset 6, -16
	movq	%rsp, %rbp
	.seh_setframe	%rbp, 0
	.cfi_def_cfa_register 6
	subq	$64, %rsp
	.seh_stackalloc	64
	.seh_endprologue
	.loc 1 353 16
	movq	SystemTable(%rip), %rax
	movq	96(%rax), %rax
	.loc 1 353 30
	movq	320(%rax), %rax
	.loc 1 353 5
	leaq	gop(%rip), %r8
	movl	$0, %edx
	leaq	EFI_GRAPHICS_OUTPUT_PROTOCOL_GUID(%rip), %rcx
	call	*%rax
.LVL24:
	.loc 1 355 9
	movl	$9000000, -4(%rbp)
	.loc 1 356 27
	movq	gop(%rip), %rax
	movq	24(%rax), %rax
	.loc 1 356 8
	movq	16(%rax), %rax
	movq	%rax, -16(%rbp)
	.loc 1 357 33
	movq	gop(%rip), %rax
	movq	24(%rax), %rax
	.loc 1 357 9
	movl	(%rax), %eax
	movl	%eax, -20(%rbp)
	.loc 1 377 3
	movl	$12, %ecx
	call	SetColor
	.loc 1 379 3
	leaq	.LC28(%rip), %rax
	movq	%rax, %rcx
	call	Print
	.loc 1 380 23
	movq	gop(%rip), %rax
	movq	24(%rax), %rax
	.loc 1 380 29
	movq	24(%rax), %rax
	.loc 1 380 18
	movq	%rax, bi(%rip)
	.loc 1 381 22
	movq	gop(%rip), %rax
	movq	24(%rax), %rax
	.loc 1 381 28
	movq	32(%rax), %rax
	.loc 1 381 17
	movq	%rax, 8+bi(%rip)
	.loc 1 382 23
	movq	gop(%rip), %rax
	movq	24(%rax), %rax
	.loc 1 382 29
	movq	8(%rax), %rax
	.loc 1 382 35
	movl	4(%rax), %eax
	.loc 1 382 18
	movl	%eax, 16+bi(%rip)
	.loc 1 383 24
	movq	gop(%rip), %rax
	movq	24(%rax), %rax
	.loc 1 383 30
	movq	8(%rax), %rax
	.loc 1 383 36
	movl	8(%rax), %eax
	.loc 1 383 19
	movl	%eax, 20+bi(%rip)
	.loc 1 384 29
	movq	gop(%rip), %rax
	movq	24(%rax), %rax
	.loc 1 384 35
	movq	8(%rax), %rax
	.loc 1 384 41
	movl	32(%rax), %eax
	.loc 1 384 24
	movl	%eax, 24+bi(%rip)
	.loc 1 408 1
	nop
	addq	$64, %rsp
	popq	%rbp
	.cfi_restore 6
	.cfi_def_cfa 7, 8
	ret
	.cfi_endproc
.LFE21:
	.seh_endproc
	.globl	InitializeSystem
	.def	InitializeSystem;	.scl	2;	.type	32;	.endef
	.seh_proc	InitializeSystem
InitializeSystem:
.LFB22:
	.loc 1 411 1
	.cfi_startproc
	pushq	%rbp
	.seh_pushreg	%rbp
	.cfi_def_cfa_offset 16
	.cfi_offset 6, -16
	movq	%rsp, %rbp
	.seh_setframe	%rbp, 0
	.cfi_def_cfa_register 6
	subq	$32, %rsp
	.seh_stackalloc	32
	.seh_endprologue
	.loc 1 412 5
	call	ResetScreen
	.loc 1 413 5
	call	InitializeGOP
	.loc 1 414 2
	call	InitializeFILESYSTEM
	.loc 1 415 1
	nop
	addq	$32, %rsp
	popq	%rbp
	.cfi_restore 6
	.cfi_def_cfa 7, 8
	ret
	.cfi_endproc
.LFE22:
	.seh_endproc
	.section .rdata,"dr"
	.align 2
.LC29:
	.ascii "J\0a\0n\0u\0a\0r\0y\0\0\0"
	.align 2
.LC30:
	.ascii "F\0e\0b\0r\0u\0a\0r\0y\0\0\0"
	.align 2
.LC31:
	.ascii "M\0a\0r\0c\0h\0\0\0"
	.align 2
.LC32:
	.ascii "A\0p\0r\0i\0l\0\0\0"
	.align 2
.LC33:
	.ascii "M\0a\0y\0\0\0"
	.align 2
.LC34:
	.ascii "J\0u\0n\0e\0\0\0"
	.align 2
.LC35:
	.ascii "J\0u\0l\0y\0\0\0"
	.align 2
.LC36:
	.ascii "A\0u\0g\0u\0s\0t\0\0\0"
	.align 2
.LC37:
	.ascii "S\0e\0p\0t\0e\0m\0b\0e\0r\0\0\0"
	.align 2
.LC38:
	.ascii "O\0c\0t\0o\0b\0e\0r\0\0\0"
	.align 2
.LC39:
	.ascii "N\0o\0v\0e\0m\0b\0e\0r\0\0\0"
	.align 2
.LC40:
	.ascii "D\0e\0c\0e\0m\0b\0e\0r\0\0\0"
	.align 2
.LC41:
	.ascii "N\0/\0A\0\0\0"
	.text
	.globl	GetMonth
	.def	GetMonth;	.scl	2;	.type	32;	.endef
	.seh_proc	GetMonth
GetMonth:
.LFB23:
	.file 2 "efimain.c"
	.loc 2 11 1
	.cfi_startproc
	pushq	%rbp
	.seh_pushreg	%rbp
	.cfi_def_cfa_offset 16
	.cfi_offset 6, -16
	movq	%rsp, %rbp
	.seh_setframe	%rbp, 0
	.cfi_def_cfa_register 6
	.seh_endprologue
	movl	%ecx, %eax
	movw	%ax, 16(%rbp)
	.loc 2 12 5
	movzwl	16(%rbp), %eax
	cmpl	$12, %eax
	ja	.L67
	movl	%eax, %eax
	leaq	0(,%rax,4), %rdx
	leaq	.L69(%rip), %rax
	movl	(%rdx,%rax), %eax
	cltq
	leaq	.L69(%rip), %rdx
	addq	%rdx, %rax
	jmp	*%rax
	.section .rdata,"dr"
	.align 4
.L69:
	.long	.L67-.L69
	.long	.L80-.L69
	.long	.L79-.L69
	.long	.L78-.L69
	.long	.L77-.L69
	.long	.L76-.L69
	.long	.L75-.L69
	.long	.L74-.L69
	.long	.L73-.L69
	.long	.L72-.L69
	.long	.L71-.L69
	.long	.L70-.L69
	.long	.L68-.L69
	.text
.L80:
	.loc 2 16 20
	leaq	.LC29(%rip), %rax
	jmp	.L81
.L79:
	.loc 2 20 20
	leaq	.LC30(%rip), %rax
	jmp	.L81
.L78:
	.loc 2 24 20
	leaq	.LC31(%rip), %rax
	jmp	.L81
.L77:
	.loc 2 28 20
	leaq	.LC32(%rip), %rax
	jmp	.L81
.L76:
	.loc 2 32 20
	leaq	.LC33(%rip), %rax
	jmp	.L81
.L75:
	.loc 2 36 20
	leaq	.LC34(%rip), %rax
	jmp	.L81
.L74:
	.loc 2 40 20
	leaq	.LC35(%rip), %rax
	jmp	.L81
.L73:
	.loc 2 44 20
	leaq	.LC36(%rip), %rax
	jmp	.L81
.L72:
	.loc 2 48 20
	leaq	.LC37(%rip), %rax
	jmp	.L81
.L71:
	.loc 2 52 20
	leaq	.LC38(%rip), %rax
	jmp	.L81
.L70:
	.loc 2 56 20
	leaq	.LC39(%rip), %rax
	jmp	.L81
.L68:
	.loc 2 60 20
	leaq	.LC40(%rip), %rax
	jmp	.L81
.L67:
	.loc 2 63 12
	leaq	.LC41(%rip), %rax
.L81:
	.loc 2 64 1
	popq	%rbp
	.cfi_restore 6
	.cfi_def_cfa 7, 8
	ret
	.cfi_endproc
.LFE23:
	.seh_endproc
	.section .rdata,"dr"
	.align 2
.LC42:
	.ascii "s\0t\0\0\0"
	.align 2
.LC43:
	.ascii "n\0d\0\0\0"
	.align 2
.LC44:
	.ascii "r\0d\0\0\0"
	.align 2
.LC45:
	.ascii "t\0h\0\0\0"
	.text
	.globl	GetDayExtension
	.def	GetDayExtension;	.scl	2;	.type	32;	.endef
	.seh_proc	GetDayExtension
GetDayExtension:
.LFB24:
	.loc 2 67 1
	.cfi_startproc
	pushq	%rbp
	.seh_pushreg	%rbp
	.cfi_def_cfa_offset 16
	.cfi_offset 6, -16
	movq	%rsp, %rbp
	.seh_setframe	%rbp, 0
	.cfi_def_cfa_register 6
	.seh_endprologue
	movl	%ecx, %eax
	movw	%ax, 16(%rbp)
	.loc 2 68 5
	movzwl	16(%rbp), %eax
	cmpl	$31, %eax
	ja	.L83
	movl	%eax, %eax
	leaq	0(,%rax,4), %rdx
	leaq	.L85(%rip), %rax
	movl	(%rdx,%rax), %eax
	cltq
	leaq	.L85(%rip), %rdx
	addq	%rdx, %rax
	jmp	*%rax
	.section .rdata,"dr"
	.align 4
.L85:
	.long	.L83-.L85
	.long	.L91-.L85
	.long	.L90-.L85
	.long	.L89-.L85
	.long	.L83-.L85
	.long	.L83-.L85
	.long	.L83-.L85
	.long	.L83-.L85
	.long	.L83-.L85
	.long	.L83-.L85
	.long	.L83-.L85
	.long	.L83-.L85
	.long	.L83-.L85
	.long	.L83-.L85
	.long	.L83-.L85
	.long	.L83-.L85
	.long	.L83-.L85
	.long	.L83-.L85
	.long	.L83-.L85
	.long	.L83-.L85
	.long	.L83-.L85
	.long	.L88-.L85
	.long	.L87-.L85
	.long	.L86-.L85
	.long	.L83-.L85
	.long	.L83-.L85
	.long	.L83-.L85
	.long	.L83-.L85
	.long	.L83-.L85
	.long	.L83-.L85
	.long	.L83-.L85
	.long	.L84-.L85
	.text
.L91:
	.loc 2 72 20
	leaq	.LC42(%rip), %rax
	jmp	.L92
.L90:
	.loc 2 76 20
	leaq	.LC43(%rip), %rax
	jmp	.L92
.L89:
	.loc 2 80 20
	leaq	.LC44(%rip), %rax
	jmp	.L92
.L88:
	.loc 2 84 11
	leaq	.LC42(%rip), %rax
	jmp	.L92
.L87:
	.loc 2 88 11
	leaq	.LC43(%rip), %rax
	jmp	.L92
.L86:
	.loc 2 92 11
	leaq	.LC44(%rip), %rax
	jmp	.L92
.L84:
	.loc 2 96 11
	leaq	.LC42(%rip), %rax
	jmp	.L92
.L83:
	.loc 2 99 12
	leaq	.LC45(%rip), %rax
.L92:
	.loc 2 100 1
	popq	%rbp
	.cfi_restore 6
	.cfi_def_cfa 7, 8
	ret
	.cfi_endproc
.LFE24:
	.seh_endproc
	.globl	RtCompareGuid
	.def	RtCompareGuid;	.scl	2;	.type	32;	.endef
	.seh_proc	RtCompareGuid
RtCompareGuid:
.LFB25:
	.loc 2 106 1
	.cfi_startproc
	pushq	%rbp
	.seh_pushreg	%rbp
	.cfi_def_cfa_offset 16
	.cfi_offset 6, -16
	movq	%rsp, %rbp
	.seh_setframe	%rbp, 0
	.cfi_def_cfa_register 6
	subq	$32, %rsp
	.seh_stackalloc	32
	.seh_endprologue
	movq	%rcx, 16(%rbp)
	movq	%rdx, 24(%rbp)
	.loc 2 108 8
	movq	16(%rbp), %rax
	movq	%rax, -8(%rbp)
	.loc 2 109 8
	movq	24(%rbp), %rax
	movq	%rax, -16(%rbp)
	.loc 2 110 11
	movq	-8(%rbp), %rax
	movl	(%rax), %edx
	.loc 2 110 19
	movq	-16(%rbp), %rax
	movl	(%rax), %eax
	.loc 2 110 7
	subl	%eax, %edx
	movl	%edx, -20(%rbp)
	.loc 2 111 12
	movq	-8(%rbp), %rax
	addq	$4, %rax
	movl	(%rax), %edx
	.loc 2 111 20
	movq	-16(%rbp), %rax
	addq	$4, %rax
	movl	(%rax), %eax
	.loc 2 111 16
	subl	%eax, %edx
	.loc 2 111 7
	orl	%edx, -20(%rbp)
	.loc 2 112 12
	movq	-8(%rbp), %rax
	addq	$8, %rax
	movl	(%rax), %edx
	.loc 2 112 20
	movq	-16(%rbp), %rax
	addq	$8, %rax
	movl	(%rax), %eax
	.loc 2 112 16
	subl	%eax, %edx
	.loc 2 112 7
	orl	%edx, -20(%rbp)
	.loc 2 113 12
	movq	-8(%rbp), %rax
	addq	$12, %rax
	movl	(%rax), %edx
	.loc 2 113 20
	movq	-16(%rbp), %rax
	addq	$12, %rax
	movl	(%rax), %eax
	.loc 2 113 16
	subl	%eax, %edx
	.loc 2 113 7
	orl	%edx, -20(%rbp)
	.loc 2 114 12
	movl	-20(%rbp), %eax
	cltq
	.loc 2 115 1
	addq	$32, %rsp
	popq	%rbp
	.cfi_restore 6
	.cfi_def_cfa 7, 8
	ret
	.cfi_endproc
.LFE25:
	.seh_endproc
	.globl	CompareGuid
	.def	CompareGuid;	.scl	2;	.type	32;	.endef
	.seh_proc	CompareGuid
CompareGuid:
.LFB26:
	.loc 2 118 1
	.cfi_startproc
	pushq	%rbp
	.seh_pushreg	%rbp
	.cfi_def_cfa_offset 16
	.cfi_offset 6, -16
	movq	%rsp, %rbp
	.seh_setframe	%rbp, 0
	.cfi_def_cfa_register 6
	subq	$32, %rsp
	.seh_stackalloc	32
	.seh_endprologue
	movq	%rcx, 16(%rbp)
	movq	%rdx, 24(%rbp)
	.loc 2 119 12
	movq	24(%rbp), %rdx
	movq	16(%rbp), %rax
	movq	%rax, %rcx
	call	RtCompareGuid
	.loc 2 120 1
	addq	$32, %rsp
	popq	%rbp
	.cfi_restore 6
	.cfi_def_cfa 7, 8
	ret
	.cfi_endproc
.LFE26:
	.seh_endproc
.lcomm gdt,40,32
.lcomm GDTReg,10,8
	.globl	gdt_init
	.def	gdt_init;	.scl	2;	.type	32;	.endef
	.seh_proc	gdt_init
gdt_init:
.LFB27:
	.loc 2 144 17
	.cfi_startproc
	pushq	%rbp
	.seh_pushreg	%rbp
	.cfi_def_cfa_offset 16
	.cfi_offset 6, -16
	movq	%rsp, %rbp
	.seh_setframe	%rbp, 0
	.cfi_def_cfa_register 6
	.seh_endprologue
	.loc 2 145 28
	movw	$0, gdt(%rip)
	.loc 2 146 27
	movw	$0, 2+gdt(%rip)
	.loc 2 147 27
	movb	$0, 4+gdt(%rip)
	.loc 2 148 25
	movb	$0, 5+gdt(%rip)
	.loc 2 149 30
	movb	$0, 6+gdt(%rip)
	.loc 2 150 28
	movb	$0, 7+gdt(%rip)
	.loc 2 152 28
	movw	$0, 8+gdt(%rip)
	.loc 2 153 27
	movw	$0, 10+gdt(%rip)
	.loc 2 154 27
	movb	$0, 12+gdt(%rip)
	.loc 2 155 25
	movb	$-102, 13+gdt(%rip)
	.loc 2 156 30
	movb	$32, 14+gdt(%rip)
	.loc 2 157 28
	movb	$0, 15+gdt(%rip)
	.loc 2 159 28
	movw	$0, 16+gdt(%rip)
	.loc 2 160 27
	movw	$0, 18+gdt(%rip)
	.loc 2 161 27
	movb	$0, 20+gdt(%rip)
	.loc 2 162 25
	movb	$-110, 21+gdt(%rip)
	.loc 2 163 30
	movb	$0, 22+gdt(%rip)
	.loc 2 164 28
	movb	$0, 23+gdt(%rip)
	.loc 2 166 28
	movw	$0, 24+gdt(%rip)
	.loc 2 167 27
	movw	$0, 26+gdt(%rip)
	.loc 2 168 27
	movb	$0, 28+gdt(%rip)
	.loc 2 169 25
	movb	$-6, 29+gdt(%rip)
	.loc 2 170 30
	movb	$32, 30+gdt(%rip)
	.loc 2 171 28
	movb	$0, 31+gdt(%rip)
	.loc 2 173 28
	movw	$0, 32+gdt(%rip)
	.loc 2 174 27
	movw	$0, 34+gdt(%rip)
	.loc 2 175 27
	movb	$0, 36+gdt(%rip)
	.loc 2 176 25
	movb	$-14, 37+gdt(%rip)
	.loc 2 177 30
	movb	$0, 38+gdt(%rip)
	.loc 2 178 28
	movb	$0, 39+gdt(%rip)
	.loc 2 180 18
	movw	$39, GDTReg(%rip)
	.loc 2 181 19
	leaq	gdt(%rip), %rax
	.loc 2 181 17
	movq	%rax, 2+GDTReg(%rip)
	.loc 2 183 5
/APP
 # 183 "efimain.c" 1
	lgdt GDTReg(%rip)
 # 0 "" 2
	.loc 2 185 2
/NO_APP
	movl	$16, %eax
/APP
 # 185 "efimain.c" 1
	push $8
	push $1f
	lretq
	1:
	mov %eax, %ds
	mov %eax, %es
	mov %eax, %fs
	mov %eax, %gs
	mov %eax, %ss
	
 # 0 "" 2
	.loc 2 198 1
/NO_APP
	nop
	popq	%rbp
	.cfi_restore 6
	.cfi_def_cfa 7, 8
	ret
	.cfi_endproc
.LFE27:
	.seh_endproc
	.section .rdata,"dr"
	.align 8
.LC46:
	.ascii "T\0h\0a\0t\0O\0S\0"
	.ascii "6\0"
	.ascii "4\0\\\0l\0o\0a\0d\0e\0r\0.\0b\0i\0n\0\0\0"
	.align 2
.LC47:
	.ascii "\15\0\12\0\15\0\12\0\0\0"
	.align 8
.LC48:
	.ascii "B\0a\0s\0e\0A\0d\0d\0r\0e\0s\0s\0 \0 \0 \0 \0 \0 \0 \0:\0 \0\0\0"
	.align 8
.LC49:
	.ascii "B\0u\0f\0f\0e\0r\0S\0i\0z\0e\0 \0 \0 \0 \0 \0 \0 \0 \0:\0 \0\0\0"
	.align 8
.LC50:
	.ascii "W\0i\0d\0t\0h\0 \0 \0 \0 \0 \0 \0 \0 \0 \0 \0 \0 \0 \0:\0 \0\0\0"
	.align 8
.LC51:
	.ascii "H\0e\0i\0g\0h\0t\0 \0 \0 \0 \0 \0 \0 \0 \0 \0 \0 \0 \0:\0 \0\0\0"
	.align 8
.LC52:
	.ascii "P\0i\0x\0e\0l\0s\0P\0e\0r\0S\0c\0a\0n\0L\0i\0n\0e\0 \0:\0 \0\0\0"
	.align 2
.LC53:
	.ascii "\15\0\12\0\15\0\12\0D\0A\0T\0E\0 \0\0\0"
	.align 2
.LC54:
	.ascii ":\0 \0\0\0"
	.align 2
.LC55:
	.ascii " \0/\0 \0\0\0"
	.align 8
.LC56:
	.ascii "L\0O\0A\0D\0E\0R\0 \0F\0I\0L\0E\0 \0S\0I\0Z\0E\0 \0:\0 \0\0\0"
	.align 2
.LC57:
	.ascii " \0B\0y\0t\0e\0s\0\15\0\12\0\15\0\12\0\0\0"
	.align 8
.LC58:
	.ascii "L\0o\0a\0d\0i\0n\0g\0 \0T\0h\0a\0t\0O\0S\0"
	.ascii "6\0"
	.ascii "4\0 \0.\0.\0.\0\0\0"
.LC59:
	.ascii "RSD PTR \0"
	.text
	.globl	efi_main
	.def	efi_main;	.scl	2;	.type	32;	.endef
	.seh_proc	efi_main
efi_main:
.LFB28:
	.loc 2 201 1
	.cfi_startproc
	pushq	%rbp
	.seh_pushreg	%rbp
	.cfi_def_cfa_offset 16
	.cfi_offset 6, -16
	movq	%rsp, %rbp
	.seh_setframe	%rbp, 0
	.cfi_def_cfa_register 6
	subq	$176, %rsp
	.seh_stackalloc	176
	.seh_endprologue
	movq	%rcx, 16(%rbp)
	movq	%rdx, 24(%rbp)
	.loc 2 202 17
	movq	16(%rbp), %rax
	movq	%rax, ImageHandle(%rip)
	.loc 2 203 17
	movq	24(%rbp), %rax
	movq	%rax, SystemTable(%rip)
	.loc 2 205 2
	call	InitializeSystem
	.loc 2 207 2
	leaq	.LC46(%rip), %rax
	movq	%rax, %rcx
	call	readFile
	.loc 2 211 2
	leaq	.LC47(%rip), %rax
	movq	%rax, %rcx
	call	Print
	.loc 2 212 2
	movl	$15, %ecx
	call	SetColor
	.loc 2 213 5
	leaq	.LC48(%rip), %rax
	movq	%rax, %rcx
	call	Print
	.loc 2 214 2
	movl	$14, %ecx
	call	SetColor
	.loc 2 215 5
	leaq	.LC1(%rip), %rax
	movq	%rax, %rcx
	call	Print
	.loc 2 216 31
	leaq	bi(%rip), %rax
	.loc 2 216 5
	movl	(%rax), %eax
	leaq	-64(%rbp), %rdx
	movl	$16, %r8d
	movl	%eax, %ecx
	call	itoa
	.loc 2 217 5
	leaq	-64(%rbp), %rax
	movq	%rax, %rcx
	call	Print
	.loc 2 218 5
	leaq	.LC2(%rip), %rax
	movq	%rax, %rcx
	call	Print
	.loc 2 220 5
	movl	$15, %ecx
	call	SetColor
	.loc 2 221 5
	leaq	.LC49(%rip), %rax
	movq	%rax, %rcx
	call	Print
	.loc 2 222 5
	movl	$14, %ecx
	call	SetColor
	.loc 2 223 5
	leaq	.LC1(%rip), %rax
	movq	%rax, %rcx
	call	Print
	.loc 2 224 12
	movq	8+bi(%rip), %rax
	.loc 2 224 5
	movl	%eax, %ecx
	leaq	-64(%rbp), %rax
	movl	$16, %r8d
	movq	%rax, %rdx
	call	itoa
	.loc 2 225 5
	movl	$14, %ecx
	call	SetColor
	.loc 2 226 5
	leaq	-64(%rbp), %rax
	movq	%rax, %rcx
	call	Print
	.loc 2 227 5
	leaq	.LC2(%rip), %rax
	movq	%rax, %rcx
	call	Print
	.loc 2 229 5
	movl	$15, %ecx
	call	SetColor
	.loc 2 230 5
	leaq	.LC50(%rip), %rax
	movq	%rax, %rcx
	call	Print
	.loc 2 231 12
	movl	16+bi(%rip), %eax
	.loc 2 231 5
	leaq	-64(%rbp), %rdx
	movl	$10, %r8d
	movl	%eax, %ecx
	call	itoa
	.loc 2 232 5
	movl	$14, %ecx
	call	SetColor
	.loc 2 233 5
	leaq	-64(%rbp), %rax
	movq	%rax, %rcx
	call	Print
	.loc 2 234 5
	leaq	.LC2(%rip), %rax
	movq	%rax, %rcx
	call	Print
	.loc 2 236 5
	movl	$15, %ecx
	call	SetColor
	.loc 2 237 5
	leaq	.LC51(%rip), %rax
	movq	%rax, %rcx
	call	Print
	.loc 2 238 12
	movl	20+bi(%rip), %eax
	.loc 2 238 5
	leaq	-64(%rbp), %rdx
	movl	$10, %r8d
	movl	%eax, %ecx
	call	itoa
	.loc 2 239 5
	movl	$14, %ecx
	call	SetColor
	.loc 2 240 5
	leaq	-64(%rbp), %rax
	movq	%rax, %rcx
	call	Print
	.loc 2 241 5
	leaq	.LC2(%rip), %rax
	movq	%rax, %rcx
	call	Print
	.loc 2 243 5
	movl	$15, %ecx
	call	SetColor
	.loc 2 244 5
	leaq	.LC52(%rip), %rax
	movq	%rax, %rcx
	call	Print
	.loc 2 245 12
	movl	24+bi(%rip), %eax
	.loc 2 245 5
	leaq	-64(%rbp), %rdx
	movl	$10, %r8d
	movl	%eax, %ecx
	call	itoa
	.loc 2 246 5
	movl	$14, %ecx
	call	SetColor
	.loc 2 247 5
	leaq	-64(%rbp), %rax
	movq	%rax, %rcx
	call	Print
	.loc 2 249 2
	movl	$3, %ecx
	call	SetColor
	.loc 2 250 2
	leaq	.LC53(%rip), %rax
	movq	%rax, %rcx
	call	Print
	.loc 2 251 2
	movl	$15, %ecx
	call	SetColor
	.loc 2 252 2
	leaq	.LC54(%rip), %rax
	movq	%rax, %rcx
	call	Print
	.loc 2 254 13
	movq	SystemTable(%rip), %rax
	movq	88(%rax), %rax
	.loc 2 254 30
	movq	24(%rax), %r8
	.loc 2 254 2
	leaq	-80(%rbp), %rax
	movl	$0, %edx
	movq	%rax, %rcx
	call	*%r8
.LVL25:
	.loc 2 257 2
	movl	$14, %ecx
	call	SetColor
	.loc 2 258 21
	movzbl	-78(%rbp), %eax
	.loc 2 258 8
	movzbl	%al, %eax
	movl	%eax, %ecx
	call	GetMonth
	.loc 2 258 2 discriminator 1
	movq	%rax, %rcx
	call	Print
	.loc 2 259 2
	movl	$12, %ecx
	call	SetColor
	.loc 2 260 2
	leaq	.LC55(%rip), %rax
	movq	%rax, %rcx
	call	Print
	.loc 2 261 2
	movl	$14, %ecx
	call	SetColor
	.loc 2 262 11
	movzbl	-77(%rbp), %eax
	.loc 2 262 2
	movzbl	%al, %eax
	leaq	-88(%rbp), %rdx
	movl	$10, %r8d
	movl	%eax, %ecx
	call	itoa
	.loc 2 263 2
	leaq	-88(%rbp), %rax
	movq	%rax, %rcx
	call	Print
	.loc 2 264 28
	movzbl	-77(%rbp), %eax
	.loc 2 264 8
	movzbl	%al, %eax
	movl	%eax, %ecx
	call	GetDayExtension
	.loc 2 264 2 discriminator 1
	movq	%rax, %rcx
	call	Print
	.loc 2 265 2
	movl	$12, %ecx
	call	SetColor
	.loc 2 266 5
	leaq	.LC55(%rip), %rax
	movq	%rax, %rcx
	call	Print
	.loc 2 267 2
	movl	$14, %ecx
	call	SetColor
	.loc 2 268 11
	movzwl	-80(%rbp), %eax
	.loc 2 268 2
	movzwl	%ax, %eax
	leaq	-88(%rbp), %rdx
	movl	$10, %r8d
	movl	%eax, %ecx
	call	itoa
	.loc 2 269 2
	leaq	-88(%rbp), %rax
	movq	%rax, %rcx
	call	Print
	.loc 2 270 2
	leaq	.LC47(%rip), %rax
	movq	%rax, %rcx
	call	Print
	.loc 2 272 9
	movq	OSBuffer_Handle(%rip), %rax
	movq	%rax, -32(%rbp)
	.loc 2 274 2
	movl	$15, %ecx
	call	SetColor
	.loc 2 275 5
	leaq	.LC56(%rip), %rax
	movq	%rax, %rcx
	call	Print
	.loc 2 276 31
	leaq	28+bi(%rip), %rax
	.loc 2 276 5
	movl	(%rax), %eax
	leaq	-64(%rbp), %rdx
	movl	$10, %r8d
	movl	%eax, %ecx
	call	itoa
	.loc 2 277 5
	movl	$14, %ecx
	call	SetColor
	.loc 2 278 5
	leaq	-64(%rbp), %rax
	movq	%rax, %rcx
	call	Print
	.loc 2 279 2
	movl	$3, %ecx
	call	SetColor
	.loc 2 280 5
	leaq	.LC57(%rip), %rax
	movq	%rax, %rcx
	call	Print
	.loc 2 282 2
	movl	$15, %ecx
	call	SetColor
	.loc 2 283 5
	leaq	.LC58(%rip), %rax
	movq	%rax, %rcx
	call	Print
	.loc 2 285 11
	movq	$0, -96(%rbp)
	.loc 2 291 16
	movq	SystemTable(%rip), %rax
	movq	96(%rax), %rax
	.loc 2 291 30
	movq	56(%rax), %r10
	.loc 2 291 5
	movq	-104(%rbp), %rdx
	leaq	-120(%rbp), %r9
	leaq	-112(%rbp), %r8
	leaq	-96(%rbp), %rax
	leaq	-124(%rbp), %rcx
	movq	%rcx, 32(%rsp)
	movq	%rax, %rcx
	call	*%r10
.LVL26:
	.loc 2 292 24
	movq	-120(%rbp), %rax
	leaq	(%rax,%rax), %rdx
	.loc 2 292 19
	movq	-96(%rbp), %rax
	addq	%rdx, %rax
	movq	%rax, -96(%rbp)
	.loc 2 293 16
	movq	SystemTable(%rip), %rax
	movq	96(%rax), %rax
	.loc 2 293 30
	movq	64(%rax), %r9
	.loc 2 293 5
	movq	-96(%rbp), %rax
	leaq	-104(%rbp), %rdx
	movq	%rdx, %r8
	movq	%rax, %rdx
	movl	$2, %ecx
	call	*%r9
.LVL27:
	.loc 2 294 16
	movq	SystemTable(%rip), %rax
	movq	96(%rax), %rax
	.loc 2 294 30
	movq	56(%rax), %r10
	.loc 2 294 5
	movq	-104(%rbp), %rdx
	leaq	-120(%rbp), %r9
	leaq	-112(%rbp), %r8
	leaq	-96(%rbp), %rax
	leaq	-124(%rbp), %rcx
	movq	%rcx, 32(%rsp)
	movq	%rax, %rcx
	call	*%r10
.LVL28:
	.loc 2 299 55
	movq	SystemTable(%rip), %rax
	.loc 2 299 30
	movq	112(%rax), %rax
	movq	%rax, -8(%rbp)
	.loc 2 300 22
	movq	$0, -16(%rbp)
.LBB8:
	.loc 2 301 12
	movq	$0, -24(%rbp)
	.loc 2 301 2
	jmp	.L99
.L101:
	.loc 2 303 30
	movq	-24(%rbp), %rdx
	movq	%rdx, %rax
	addq	%rax, %rax
	addq	%rdx, %rax
	salq	$3, %rax
	movq	%rax, %rdx
	movq	-8(%rbp), %rax
	addq	%rdx, %rax
	.loc 2 303 6
	movq	%rax, %rcx
	leaq	ACPI_20_TABLE_GUID(%rip), %rax
	movq	%rax, %rdx
	call	CompareGuid
	.loc 2 303 5 discriminator 1
	testq	%rax, %rax
	je	.L100
	.loc 2 305 51
	movq	-8(%rbp), %rax
	movq	16(%rax), %rax
	.loc 2 305 7
	movq	%rax, %rdx
	leaq	.LC59(%rip), %rax
	movq	%rax, %rcx
	call	strcmp
	.loc 2 305 6 discriminator 1
	testl	%eax, %eax
	jne	.L100
	.loc 2 307 14
	movq	-8(%rbp), %rax
	movq	16(%rax), %rax
	movq	%rax, -16(%rbp)
.L100:
	.loc 2 310 14
	addq	$24, -8(%rbp)
	.loc 2 301 71 discriminator 2
	addq	$1, -24(%rbp)
.L99:
	.loc 2 301 42 discriminator 1
	movq	SystemTable(%rip), %rax
	movq	104(%rax), %rax
	.loc 2 301 29 discriminator 1
	cmpq	%rax, -24(%rbp)
	jb	.L101
.LBE8:
	.loc 2 313 87
	movl	ENTRY_POINT(%rip), %eax
	movl	%eax, %edx
	movq	-32(%rbp), %rax
	addq	%rdx, %rax
	.loc 2 313 9
	movq	%rax, -40(%rbp)
	.loc 2 315 10
	movq	-104(%rbp), %rax
	movq	%rax, 36+bi(%rip)
	.loc 2 316 14
	movq	-96(%rbp), %rax
	movq	%rax, 44+bi(%rip)
	.loc 2 317 24
	movq	-120(%rbp), %rax
	movq	%rax, 52+bi(%rip)
	.loc 2 318 10
	movq	-16(%rbp), %rax
	movq	%rax, 60+bi(%rip)
	.loc 2 320 16
	movq	SystemTable(%rip), %rax
	movq	96(%rax), %rax
	.loc 2 320 30
	movq	232(%rax), %r8
	.loc 2 320 5
	movq	-112(%rbp), %rdx
	movq	ImageHandle(%rip), %rax
	movq	%rax, %rcx
	call	*%r8
.LVL29:
	.loc 2 322 2
	call	gdt_init
	.loc 2 324 5
	movq	-40(%rbp), %rax
	leaq	bi(%rip), %rdx
	movq	%rdx, %rcx
	call	*%rax
.LVL30:
	.loc 2 329 12
	movl	$0, %eax
	.loc 2 330 1
	addq	$176, %rsp
	popq	%rbp
	.cfi_restore 6
	.cfi_def_cfa 7, 8
	ret
	.cfi_endproc
.LFE28:
	.seh_endproc
.Letext0:
	.file 3 "C:/msys64/mingw64/include/stdint.h"
	.file 4 "efi.h"