	.file	"loader.c"
	.text
.Ltext0:
	.cfi_sections	.debug_frame
	.file 0 "E://wf//src//uefi//UEFI-Tuts//src//tutorial 30" "loader/loader.c"
	.globl	EFI_GRAPHICS_OUTPUT_PROTOCOL_GUID
	.data
	.align 16
EFI_GRAPHICS_OUTPUT_PROTOCOL_GUID:
	.long	-1874679330
	.word	9180
	.word	19000
	.ascii "\226\373z\336\320\200Qj"
	.globl	EFI_LOADED_IMAGE_PROTOCOL_GUID
	.align 16
EFI_LOADED_IMAGE_PROTOCOL_GUID:
	.long	1528508833
	.word	-27294
	.word	4562
	.ascii "\216?\0\240\311ir;"
	.globl	EFI_SIMPLE_FILE_SYSTEM_PROTOCOL_GUID
	.align 16
EFI_SIMPLE_FILE_SYSTEM_PROTOCOL_GUID:
	.long	-1773249758
	.word	25689
	.word	4562
	.ascii "\216"
	.ascii "9\0\240\311ir;"
	.globl	EFI_DEVICE_PATH_PROTOCOL_GUID
	.align 16
EFI_DEVICE_PATH_PROTOCOL_GUID:
	.long	156724881
	.word	27967
	.word	4562
	.ascii "\216"
	.ascii "9\0\240\311ir;"
	.globl	EFI_FILE_INFO_GUID
	.align 16
EFI_FILE_INFO_GUID:
	.long	156724882
	.word	27967
	.word	4562
	.ascii "\216"
	.ascii "9\0\240\311ir;"
	.globl	ACPI_20_TABLE_GUID
	.align 16
ACPI_20_TABLE_GUID:
	.long	-2006390671
	.word	-6927
	.word	4563
	.ascii "\274\"\0\200\307<\210\201"
	.globl	ImageHandle
	.bss
	.align 8
ImageHandle:
	.space 8
	.globl	SystemTable
	.align 8
SystemTable:
	.space 8
	.globl	gop
	.align 8
gop:
	.space 8
	.globl	Volume
	.align 8
Volume:
	.space 8
	.globl	RootFS
	.align 8
RootFS:
	.space 8
	.text
	.globl	SetTextPosition
	.def	SetTextPosition;	.scl	2;	.type	32;	.endef
	.seh_proc	SetTextPosition
SetTextPosition:
.LFB2:
	.file 1 "loader/../efilibs.h"
	.loc 1 19 1
	.cfi_startproc
	pushq	%rbp
	.seh_pushreg	%rbp
	.cfi_def_cfa_offset 16
	.cfi_offset 6, -16
	movq	%rsp, %rbp
	.seh_setframe	%rbp, 0
	.cfi_def_cfa_register 6
	subq	$32, %rsp
	.seh_stackalloc	32
	.seh_endprologue
	movl	%ecx, 16(%rbp)
	movl	%edx, 24(%rbp)
	.loc 1 20 16
	movq	SystemTable(%rip), %rax
	movq	64(%rax), %rax
	.loc 1 20 24
	movq	56(%rax), %r9
	.loc 1 20 5
	movl	24(%rbp), %ecx
	movl	16(%rbp), %edx
	.loc 1 20 55
	movq	SystemTable(%rip), %rax
	movq	64(%rax), %rax
	.loc 1 20 5
	movq	%rcx, %r8
	movq	%rax, %rcx
	call	*%r9
.LVL0:
	.loc 1 21 1
	nop
	addq	$32, %rsp
	popq	%rbp
	.cfi_restore 6
	.cfi_def_cfa 7, 8
	ret
	.cfi_endproc
.LFE2:
	.seh_endproc
	.globl	ResetScreen
	.def	ResetScreen;	.scl	2;	.type	32;	.endef
	.seh_proc	ResetScreen
ResetScreen:
.LFB3:
	.loc 1 24 1
	.cfi_startproc
	pushq	%rbp
	.seh_pushreg	%rbp
	.cfi_def_cfa_offset 16
	.cfi_offset 6, -16
	movq	%rsp, %rbp
	.seh_setframe	%rbp, 0
	.cfi_def_cfa_register 6
	subq	$32, %rsp
	.seh_stackalloc	32
	.seh_endprologue
	.loc 1 25 16
	movq	SystemTable(%rip), %rax
	movq	64(%rax), %rax
	.loc 1 25 24
	movq	(%rax), %r8
	.loc 1 25 43
	movq	SystemTable(%rip), %rax
	movq	64(%rax), %rax
	.loc 1 25 5
	movl	$1, %edx
	movq	%rax, %rcx
	call	*%r8
.LVL1:
	.loc 1 26 1
	nop
	addq	$32, %rsp
	popq	%rbp
	.cfi_restore 6
	.cfi_def_cfa 7, 8
	ret
	.cfi_endproc
.LFE3:
	.seh_endproc
	.globl	ClearScreen
	.def	ClearScreen;	.scl	2;	.type	32;	.endef
	.seh_proc	ClearScreen
ClearScreen:
.LFB4:
	.loc 1 29 1
	.cfi_startproc
	pushq	%rbp
	.seh_pushreg	%rbp
	.cfi_def_cfa_offset 16
	.cfi_offset 6, -16
	movq	%rsp, %rbp
	.seh_setframe	%rbp, 0
	.cfi_def_cfa_register 6
	subq	$32, %rsp
	.seh_stackalloc	32
	.seh_endprologue
	.loc 1 30 16
	movq	SystemTable(%rip), %rax
	movq	64(%rax), %rax
	.loc 1 30 24
	movq	48(%rax), %rdx
	.loc 1 30 49
	movq	SystemTable(%rip), %rax
	movq	64(%rax), %rax
	.loc 1 30 5
	movq	%rax, %rcx
	call	*%rdx
.LVL2:
	.loc 1 31 1
	nop
	addq	$32, %rsp
	popq	%rbp
	.cfi_restore 6
	.cfi_def_cfa 7, 8
	ret
	.cfi_endproc
.LFE4:
	.seh_endproc
	.globl	SetColor
	.def	SetColor;	.scl	2;	.type	32;	.endef
	.seh_proc	SetColor
SetColor:
.LFB5:
	.loc 1 34 1
	.cfi_startproc
	pushq	%rbp
	.seh_pushreg	%rbp
	.cfi_def_cfa_offset 16
	.cfi_offset 6, -16
	movq	%rsp, %rbp
	.seh_setframe	%rbp, 0
	.cfi_def_cfa_register 6
	subq	$32, %rsp
	.seh_stackalloc	32
	.seh_endprologue
	movq	%rcx, 16(%rbp)
	.loc 1 35 16
	movq	SystemTable(%rip), %rax
	movq	64(%rax), %rax
	.loc 1 35 24
	movq	40(%rax), %r8
	.loc 1 35 50
	movq	SystemTable(%rip), %rax
	movq	64(%rax), %rax
	.loc 1 35 5
	movq	16(%rbp), %rdx
	movq	%rax, %rcx
	call	*%r8
.LVL3:
	.loc 1 36 1
	nop
	addq	$32, %rsp
	popq	%rbp
	.cfi_restore 6
	.cfi_def_cfa 7, 8
	ret
	.cfi_endproc
.LFE5:
	.seh_endproc
	.globl	Print
	.def	Print;	.scl	2;	.type	32;	.endef
	.seh_proc	Print
Print:
.LFB6:
	.loc 1 39 1
	.cfi_startproc
	pushq	%rbp
	.seh_pushreg	%rbp
	.cfi_def_cfa_offset 16
	.cfi_offset 6, -16
	movq	%rsp, %rbp
	.seh_setframe	%rbp, 0
	.cfi_def_cfa_register 6
	subq	$32, %rsp
	.seh_stackalloc	32
	.seh_endprologue
	movq	%rcx, 16(%rbp)
	.loc 1 40 16
	movq	SystemTable(%rip), %rax
	movq	64(%rax), %rax
	.loc 1 40 24
	movq	8(%rax), %r8
	.loc 1 40 50
	movq	SystemTable(%rip), %rax
	movq	64(%rax), %rax
	.loc 1 40 5
	movq	16(%rbp), %rdx
	movq	%rax, %rcx
	call	*%r8
.LVL4:
	.loc 1 41 1
	nop
	addq	$32, %rsp
	popq	%rbp
	.cfi_restore 6
	.cfi_def_cfa 7, 8
	ret
	.cfi_endproc
.LFE6:
	.seh_endproc
	.globl	strlen
	.def	strlen;	.scl	2;	.type	32;	.endef
	.seh_proc	strlen
strlen:
.LFB7:
	.loc 1 44 1
	.cfi_startproc
	pushq	%rbp
	.seh_pushreg	%rbp
	.cfi_def_cfa_offset 16
	.cfi_offset 6, -16
	movq	%rsp, %rbp
	.seh_setframe	%rbp, 0
	.cfi_def_cfa_register 6
	subq	$16, %rsp
	.seh_stackalloc	16
	.seh_endprologue
	movq	%rcx, 16(%rbp)
	.loc 1 45 14
	movq	16(%rbp), %rax
	movq	%rax, -8(%rbp)
	.loc 1 47 8
	nop
.L7:
	.loc 1 47 18 discriminator 1
	movq	-8(%rbp), %rax
	leaq	1(%rax), %rdx
	movq	%rdx, -8(%rbp)
	.loc 1 47 9 discriminator 1
	movzbl	(%rax), %eax
	testb	%al, %al
	jne	.L7
	.loc 1 48 18
	movq	-8(%rbp), %rax
	subq	16(%rbp), %rax
	.loc 1 48 24
	subq	$1, %rax
	.loc 1 49 1
	addq	$16, %rsp
	popq	%rbp
	.cfi_restore 6
	.cfi_def_cfa 7, 8
	ret
	.cfi_endproc
.LFE7:
	.seh_endproc
	.globl	itoa
	.def	itoa;	.scl	2;	.type	32;	.endef
	.seh_proc	itoa
itoa:
.LFB8:
	.loc 1 52 1
	.cfi_startproc
	pushq	%rbp
	.seh_pushreg	%rbp
	.cfi_def_cfa_offset 16
	.cfi_offset 6, -16
	movq	%rsp, %rbp
	.seh_setframe	%rbp, 0
	.cfi_def_cfa_register 6
	subq	$16, %rsp
	.seh_stackalloc	16
	.seh_endprologue
	movl	%ecx, 16(%rbp)
	movq	%rdx, 24(%rbp)
	movl	%r8d, 32(%rbp)
	.loc 1 55 7
	movl	16(%rbp), %eax
	movl	%eax, -12(%rbp)
	.loc 1 56 4
	movl	$0, -4(%rbp)
.L12:
	.loc 1 59 12
	movl	32(%rbp), %ecx
	.loc 1 59 8
	movl	16(%rbp), %eax
	movl	$0, %edx
	divl	%ecx
	movl	%edx, -12(%rbp)
	.loc 1 60 15
	cmpl	$9, -12(%rbp)
	ja	.L10
	.loc 1 60 37 discriminator 1
	movl	-12(%rbp), %eax
	.loc 1 60 15 discriminator 1
	leal	48(%rax), %edx
	jmp	.L11
.L10:
	.loc 1 60 58 discriminator 2
	movl	-12(%rbp), %eax
	.loc 1 60 15 discriminator 2
	leal	87(%rax), %edx
.L11:
	.loc 1 60 11 discriminator 4
	movl	-4(%rbp), %eax
	leal	1(%rax), %ecx
	movl	%ecx, -4(%rbp)
	cltq
	.loc 1 60 9 discriminator 4
	leaq	(%rax,%rax), %rcx
	movq	24(%rbp), %rax
	addq	%rcx, %rax
	.loc 1 60 15 discriminator 4
	movw	%dx, (%rax)
	.loc 1 61 12
	movl	32(%rbp), %ecx
	movl	16(%rbp), %eax
	movl	$0, %edx
	divl	%ecx
	movl	%eax, 16(%rbp)
	.loc 1 61 10
	cmpl	$0, 16(%rbp)
	jne	.L12
	.loc 1 62 10
	movl	-4(%rbp), %eax
	leal	-1(%rax), %edx
	movl	%edx, -4(%rbp)
	cltq
	.loc 1 62 8
	leaq	(%rax,%rax), %rdx
	movq	24(%rbp), %rax
	addq	%rdx, %rax
	.loc 1 62 14
	movw	$0, (%rax)
	.loc 1 64 8
	movl	$0, -8(%rbp)
	.loc 1 64 2
	jmp	.L13
.L14:
	.loc 1 66 16
	movl	-8(%rbp), %eax
	cltq
	leaq	(%rax,%rax), %rdx
	movq	24(%rbp), %rax
	addq	%rdx, %rax
	movzwl	(%rax), %eax
	.loc 1 66 8
	movzwl	%ax, %eax
	movl	%eax, -12(%rbp)
	.loc 1 67 21
	movl	-4(%rbp), %eax
	cltq
	leaq	(%rax,%rax), %rdx
	movq	24(%rbp), %rax
	addq	%rdx, %rax
	.loc 1 67 9
	movl	-8(%rbp), %edx
	movslq	%edx, %rdx
	leaq	(%rdx,%rdx), %rcx
	movq	24(%rbp), %rdx
	addq	%rcx, %rdx
	.loc 1 67 21
	movzwl	(%rax), %eax
	.loc 1 67 13
	movw	%ax, (%rdx)
	.loc 1 68 9
	movl	-4(%rbp), %eax
	cltq
	leaq	(%rax,%rax), %rdx
	movq	24(%rbp), %rax
	addq	%rdx, %rax
	.loc 1 68 13
	movl	-12(%rbp), %edx
	movw	%dx, (%rax)
	.loc 1 64 21 discriminator 3
	addl	$1, -8(%rbp)
	.loc 1 64 26 discriminator 3
	subl	$1, -4(%rbp)
.L13:
	.loc 1 64 15 discriminator 1
	movl	-8(%rbp), %eax
	cmpl	-4(%rbp), %eax
	jl	.L14
	.loc 1 70 1
	nop
	nop
	addq	$16, %rsp
	popq	%rbp
	.cfi_restore 6
	.cfi_def_cfa 7, 8
	ret
	.cfi_endproc
.LFE8:
	.seh_endproc
	.globl	strcmp
	.def	strcmp;	.scl	2;	.type	32;	.endef
	.seh_proc	strcmp
strcmp:
.LFB9:
	.loc 1 73 1
	.cfi_startproc
	pushq	%rbp
	.seh_pushreg	%rbp
	.cfi_def_cfa_offset 16
	.cfi_offset 6, -16
	movq	%rsp, %rbp
	.seh_setframe	%rbp, 0
	.cfi_def_cfa_register 6
	subq	$48, %rsp
	.seh_stackalloc	48
	.seh_endprologue
	movq	%rcx, 16(%rbp)
	movq	%rdx, 24(%rbp)
	.loc 1 74 15
	movq	16(%rbp), %rax
	movq	%rax, %rcx
	call	strlen
	.loc 1 74 6 discriminator 1
	movl	%eax, -8(%rbp)
.LBB2:
	.loc 1 75 10
	movl	$0, -4(%rbp)
	.loc 1 75 2
	jmp	.L16
.L20:
	.loc 1 77 7
	movl	-4(%rbp), %eax
	movslq	%eax, %rdx
	movq	16(%rbp), %rax
	addq	%rdx, %rax
	movzbl	(%rax), %edx
	.loc 1 77 14
	movl	-4(%rbp), %eax
	movslq	%eax, %rcx
	movq	24(%rbp), %rax
	addq	%rcx, %rax
	movzbl	(%rax), %eax
	.loc 1 77 5
	cmpb	%al, %dl
	jge	.L17
	.loc 1 77 26 discriminator 1
	movl	$-1, %eax
	.loc 1 77 26 is_stmt 0
	jmp	.L18
.L17:
	.loc 1 78 7 is_stmt 1
	movl	-4(%rbp), %eax
	movslq	%eax, %rdx
	movq	16(%rbp), %rax
	addq	%rdx, %rax
	movzbl	(%rax), %edx
	.loc 1 78 14
	movl	-4(%rbp), %eax
	movslq	%eax, %rcx
	movq	24(%rbp), %rax
	addq	%rcx, %rax
	movzbl	(%rax), %eax
	.loc 1 78 5
	cmpb	%al, %dl
	jle	.L19
	.loc 1 78 26 discriminator 1
	movl	$1, %eax
	.loc 1 78 26 is_stmt 0
	jmp	.L18
.L19:
	.loc 1 75 30 is_stmt 1 discriminator 2
	addl	$1, -4(%rbp)
.L16:
	.loc 1 75 19 discriminator 1
	movl	-4(%rbp), %eax
	cmpl	-8(%rbp), %eax
	jl	.L20
.LBE2:
	.loc 1 80 9
	movl	$0, %eax
.L18:
	.loc 1 81 1
	addq	$48, %rsp
	popq	%rbp
	.cfi_restore 6
	.cfi_def_cfa 7, 8
	ret
	.cfi_endproc
.LFE9:
	.seh_endproc
	.globl	bi
	.bss
	.align 32
bi:
	.space 68
	.section .rdata,"dr"
	.align 2
.LC0:
	.ascii "I\0m\0a\0g\0e\0 \0B\0a\0s\0e\0:\0 \0\15\0\12\0\0\0"
	.align 2
.LC1:
	.ascii "0\0x\0\0\0"
	.align 2
.LC2:
	.ascii "\15\0\12\0\0\0"
	.align 8
.LC3:
	.ascii "I\0m\0a\0g\0e\0 \0B\0a\0s\0e\0 \0w\0i\0t\0h\0 \0a\0m\0p\0e\0r\0s\0a\0n\0d\0:\0 \0\15\0\12\0\0\0"
	.align 8
.LC4:
	.ascii "L\0o\0a\0d\0i\0n\0g\0 \0R\0o\0o\0t\0 \0F\0i\0l\0e\0 \0S\0y\0s\0t\0e\0m\0 \0F\0A\0I\0L\0E\0D\0!\0\15\0\12\0\0\0"
	.align 8
.LC5:
	.ascii "V\0o\0l\0u\0m\0e\0 \0H\0a\0n\0d\0l\0e\0 \0F\0A\0I\0L\0E\0D\0!\0\15\0\12\0\0\0"
	.align 8
.LC6:
	.ascii "D\0e\0v\0i\0c\0e\0P\0a\0t\0h\0 \0F\0A\0I\0L\0E\0D\0!\0\15\0\12\0\0\0"
	.align 8
.LC7:
	.ascii "L\0o\0a\0d\0e\0d\0I\0m\0a\0g\0e\0 \0F\0A\0I\0L\0E\0D\0!\0\15\0\12\0\0\0"
	.text
	.globl	InitializeFILESYSTEM
	.def	InitializeFILESYSTEM;	.scl	2;	.type	32;	.endef
	.seh_proc	InitializeFILESYSTEM
InitializeFILESYSTEM:
.LFB10:
	.loc 1 100 1
	.cfi_startproc
	pushq	%rbp
	.seh_pushreg	%rbp
	.cfi_def_cfa_offset 16
	.cfi_offset 6, -16
	movq	%rsp, %rbp
	.seh_setframe	%rbp, 0
	.cfi_def_cfa_register 6
	subq	$80, %rsp
	.seh_stackalloc	80
	.seh_endprologue
	.loc 1 104 20
	movq	SystemTable(%rip), %rax
	movq	96(%rax), %rax
	.loc 1 104 34
	movq	152(%rax), %r9
	.loc 1 104 9
	movq	ImageHandle(%rip), %rax
	leaq	-8(%rbp), %rdx
	movq	%rdx, %r8
	leaq	EFI_LOADED_IMAGE_PROTOCOL_GUID(%rip), %rdx
	movq	%rax, %rcx
	call	*%r9
.LVL5:
	.loc 1 104 7 discriminator 1
	testq	%rax, %rax
	jne	.L22
.LBB3:
	.loc 1 107 3
	leaq	.LC0(%rip), %rax
	movq	%rax, %rcx
	call	Print
	.loc 1 108 40
	movq	-8(%rbp), %rax
	movq	64(%rax), %rax
	.loc 1 108 3
	movl	(%rax), %eax
	leaq	-48(%rbp), %rdx
	movl	$16, %r8d
	movl	%eax, %ecx
	call	itoa
	.loc 1 109 3
	leaq	.LC1(%rip), %rax
	movq	%rax, %rcx
	call	Print
	.loc 1 110 6
	leaq	-48(%rbp), %rax
	movq	%rax, %rcx
	call	Print
	.loc 1 111 3
	leaq	.LC2(%rip), %rax
	movq	%rax, %rcx
	call	Print
	.loc 1 113 3
	leaq	.LC3(%rip), %rax
	movq	%rax, %rcx
	call	Print
	.loc 1 114 41
	movq	-8(%rbp), %rax
	.loc 1 114 29
	addq	$64, %rax
	.loc 1 114 3
	movl	(%rax), %eax
	leaq	-48(%rbp), %rdx
	movl	$16, %r8d
	movl	%eax, %ecx
	call	itoa
	.loc 1 115 3
	leaq	.LC1(%rip), %rax
	movq	%rax, %rcx
	call	Print
	.loc 1 116 6
	leaq	-48(%rbp), %rax
	movq	%rax, %rcx
	call	Print
	.loc 1 117 3
	leaq	.LC2(%rip), %rax
	movq	%rax, %rcx
	call	Print
	.loc 1 120 18
	movq	SystemTable(%rip), %rax
	movq	96(%rax), %rax
	.loc 1 120 32
	movq	152(%rax), %r9
	.loc 1 120 60
	movq	-8(%rbp), %rax
	.loc 1 120 7
	movq	24(%rax), %rax
	leaq	-16(%rbp), %rdx
	movq	%rdx, %r8
	leaq	EFI_DEVICE_PATH_PROTOCOL_GUID(%rip), %rdx
	movq	%rax, %rcx
	call	*%r9
.LVL6:
	.loc 1 120 5 discriminator 1
	testq	%rax, %rax
	jne	.L23
	.loc 1 122 19
	movq	SystemTable(%rip), %rax
	movq	96(%rax), %rax
	.loc 1 122 33
	movq	152(%rax), %r9
	.loc 1 122 61
	movq	-8(%rbp), %rax
	.loc 1 122 8
	movq	24(%rax), %rax
	leaq	Volume(%rip), %r8
	leaq	EFI_SIMPLE_FILE_SYSTEM_PROTOCOL_GUID(%rip), %rdx
	movq	%rax, %rcx
	call	*%r9
.LVL7:
	.loc 1 122 6 discriminator 1
	testq	%rax, %rax
	jne	.L24
	.loc 1 124 15
	movq	Volume(%rip), %rax
	movq	8(%rax), %r8
	.loc 1 124 9
	movq	Volume(%rip), %rax
	leaq	RootFS(%rip), %rdx
	movq	%rax, %rcx
	call	*%r8
.LVL8:
	.loc 1 124 7 discriminator 1
	testq	%rax, %rax
	je	.L27
	.loc 1 126 6
	leaq	.LC4(%rip), %rax
	movq	%rax, %rcx
	call	Print
.LBE3:
	.loc 1 137 1
	jmp	.L27
.L24:
.LBB4:
	.loc 1 129 11
	leaq	.LC5(%rip), %rax
	movq	%rax, %rcx
	call	Print
.LBE4:
	.loc 1 137 1
	jmp	.L27
.L23:
.LBB5:
	.loc 1 132 7
	leaq	.LC6(%rip), %rax
	movq	%rax, %rcx
	call	Print
.LBE5:
	.loc 1 137 1
	jmp	.L27
.L22:
	.loc 1 135 3
	leaq	.LC7(%rip), %rax
	movq	%rax, %rcx
	call	Print
.L27:
	.loc 1 137 1
	nop
	addq	$80, %rsp
	popq	%rbp
	.cfi_restore 6
	.cfi_def_cfa 7, 8
	ret
	.cfi_endproc
.LFE10:
	.seh_endproc
	.section .rdata,"dr"
	.align 8
.LC8:
	.ascii "W\0A\0R\0N\0I\0N\0G\0 \0:\0 \0U\0n\0a\0b\0l\0e\0 \0t\0o\0 \0f\0i\0n\0d\0 \0F\0i\0l\0e\0.\0\15\0\12\0\0\0"
	.text
	.globl	getFile
	.def	getFile;	.scl	2;	.type	32;	.endef
	.seh_proc	getFile
getFile:
.LFB11:
	.loc 1 140 1
	.cfi_startproc
	pushq	%rbp
	.seh_pushreg	%rbp
	.cfi_def_cfa_offset 16
	.cfi_offset 6, -16
	movq	%rsp, %rbp
	.seh_setframe	%rbp, 0
	.cfi_def_cfa_register 6
	subq	$64, %rsp
	.seh_stackalloc	64
	.seh_endprologue
	movq	%rcx, 16(%rbp)
	.loc 1 144 24
	movq	$0, -8(%rbp)
	.loc 1 145 15
	movq	RootFS(%rip), %rax
	movq	8(%rax), %r10
	.loc 1 145 9
	movq	RootFS(%rip), %rax
	movq	16(%rbp), %rcx
	leaq	-8(%rbp), %rdx
	movq	$0, 32(%rsp)
	movl	$3, %r9d
	movq	%rcx, %r8
	movq	%rax, %rcx
	call	*%r10
.LVL9:
	.loc 1 145 7 discriminator 1
	movabsq	$-9223372036854775794, %rdx
	cmpq	%rdx, %rax
	jne	.L29
	.loc 1 147 3
	movl	$3, %ecx
	call	SetColor
	.loc 1 148 3
	leaq	.LC8(%rip), %rax
	movq	%rax, %rcx
	call	Print
.L29:
	.loc 1 151 12
	movq	-8(%rbp), %rax
	.loc 1 152 1
	addq	$64, %rsp
	popq	%rbp
	.cfi_restore 6
	.cfi_def_cfa 7, 8
	ret
	.cfi_endproc
.LFE11:
	.seh_endproc
	.section .rdata,"dr"
	.align 8
.LC9:
	.ascii "W\0A\0R\0N\0I\0N\0G\0 \0:\0 \0U\0n\0a\0b\0l\0e\0 \0t\0o\0 \0f\0i\0n\0d\0 \0D\0i\0r\0e\0c\0t\0o\0r\0y\0.\0\15\0\12\0\0\0"
	.text
	.globl	getDir
	.def	getDir;	.scl	2;	.type	32;	.endef
	.seh_proc	getDir
getDir:
.LFB12:
	.loc 1 155 1
	.cfi_startproc
	pushq	%rbp
	.seh_pushreg	%rbp
	.cfi_def_cfa_offset 16
	.cfi_offset 6, -16
	movq	%rsp, %rbp
	.seh_setframe	%rbp, 0
	.cfi_def_cfa_register 6
	subq	$64, %rsp
	.seh_stackalloc	64
	.seh_endprologue
	movq	%rcx, 16(%rbp)
	.loc 1 156 24
	movq	$0, -8(%rbp)
	.loc 1 157 15
	movq	RootFS(%rip), %rax
	movq	8(%rax), %r10
	.loc 1 157 9
	movq	RootFS(%rip), %rax
	movq	16(%rbp), %rcx
	leaq	-8(%rbp), %rdx
	movq	$16, 32(%rsp)
	movl	$3, %r9d
	movq	%rcx, %r8
	movq	%rax, %rcx
	call	*%r10
.LVL10:
	.loc 1 157 7 discriminator 1
	movabsq	$-9223372036854775794, %rdx
	cmpq	%rdx, %rax
	jne	.L32
	.loc 1 159 3
	movl	$3, %ecx
	call	SetColor
	.loc 1 160 3
	leaq	.LC9(%rip), %rax
	movq	%rax, %rcx
	call	Print
.L32:
	.loc 1 163 12
	movq	-8(%rbp), %rax
	.loc 1 164 1
	addq	$64, %rsp
	popq	%rbp
	.cfi_restore 6
	.cfi_def_cfa 7, 8
	ret
	.cfi_endproc
.LFE12:
	.seh_endproc
	.section .rdata,"dr"
	.align 8
.LC10:
	.ascii "C\0l\0o\0s\0i\0n\0g\0 \0F\0i\0l\0e\0 \0H\0a\0n\0d\0l\0e\0 \0F\0A\0I\0L\0E\0D\0\15\0\12\0\0\0"
	.text
	.globl	closeFile
	.def	closeFile;	.scl	2;	.type	32;	.endef
	.seh_proc	closeFile
closeFile:
.LFB13:
	.loc 1 167 1
	.cfi_startproc
	pushq	%rbp
	.seh_pushreg	%rbp
	.cfi_def_cfa_offset 16
	.cfi_offset 6, -16
	movq	%rsp, %rbp
	.seh_setframe	%rbp, 0
	.cfi_def_cfa_register 6
	subq	$32, %rsp
	.seh_stackalloc	32
	.seh_endprologue
	movq	%rcx, 16(%rbp)
	.loc 1 168 19
	movq	16(%rbp), %rax
	movq	16(%rax), %rdx
	.loc 1 168 9
	movq	16(%rbp), %rax
	movq	%rax, %rcx
	call	*%rdx
.LVL11:
	.loc 1 168 7 discriminator 1
	testq	%rax, %rax
	je	.L36
	.loc 1 170 9
	movl	$6, %ecx
	call	SetColor
	.loc 1 171 9
	leaq	.LC10(%rip), %rax
	movq	%rax, %rcx
	call	Print
.L36:
	.loc 1 173 1
	nop
	addq	$32, %rsp
	popq	%rbp
	.cfi_restore 6
	.cfi_def_cfa 7, 8
	ret
	.cfi_endproc
.LFE13:
	.seh_endproc
	.section .rdata,"dr"
	.align 8
.LC11:
	.ascii "C\0l\0o\0s\0i\0n\0g\0 \0D\0i\0r\0e\0c\0t\0o\0r\0y\0 \0H\0a\0n\0d\0l\0e\0 \0F\0A\0I\0L\0E\0D\0\15\0\12\0\0\0"
	.text
	.globl	closeDir
	.def	closeDir;	.scl	2;	.type	32;	.endef
	.seh_proc	closeDir
closeDir:
.LFB14:
	.loc 1 176 1
	.cfi_startproc
	pushq	%rbp
	.seh_pushreg	%rbp
	.cfi_def_cfa_offset 16
	.cfi_offset 6, -16
	movq	%rsp, %rbp
	.seh_setframe	%rbp, 0
	.cfi_def_cfa_register 6
	subq	$32, %rsp
	.seh_stackalloc	32
	.seh_endprologue
	movq	%rcx, 16(%rbp)
	.loc 1 177 19
	movq	16(%rbp), %rax
	movq	16(%rax), %rdx
	.loc 1 177 9
	movq	16(%rbp), %rax
	movq	%rax, %rcx
	call	*%rdx
.LVL12:
	.loc 1 177 7 discriminator 1
	testq	%rax, %rax
	je	.L39
	.loc 1 179 3
	movl	$6, %ecx
	call	SetColor
	.loc 1 180 3
	leaq	.LC11(%rip), %rax
	movq	%rax, %rcx
	call	Print
.L39:
	.loc 1 182 1
	nop
	addq	$32, %rsp
	popq	%rbp
	.cfi_restore 6
	.cfi_def_cfa 7, 8
	ret
	.cfi_endproc
.LFE14:
	.seh_endproc
	.section .rdata,"dr"
	.align 8
.LC12:
	.ascii "W\0A\0R\0N\0I\0N\0G\0 \0:\0 \0U\0n\0a\0b\0l\0e\0 \0t\0o\0 \0c\0r\0e\0a\0t\0e\0 \0f\0i\0l\0e\0.\0 \0P\0l\0e\0a\0s\0e\0 \0c\0h\0e\0c\0k\0 \0y\0o\0u\0r\0 \0p\0a\0t\0h\0.\0\15\0\12\0\0\0"
	.text
	.globl	createFile
	.def	createFile;	.scl	2;	.type	32;	.endef
	.seh_proc	createFile
createFile:
.LFB15:
	.loc 1 185 1
	.cfi_startproc
	pushq	%rbp
	.seh_pushreg	%rbp
	.cfi_def_cfa_offset 16
	.cfi_offset 6, -16
	movq	%rsp, %rbp
	.seh_setframe	%rbp, 0
	.cfi_def_cfa_register 6
	subq	$64, %rsp
	.seh_stackalloc	64
	.seh_endprologue
	movq	%rcx, 16(%rbp)
	.loc 1 186 24
	movq	$0, -8(%rbp)
	.loc 1 187 15
	movq	RootFS(%rip), %rax
	movq	8(%rax), %r10
	.loc 1 187 9
	movq	RootFS(%rip), %rax
	movq	16(%rbp), %rcx
	leaq	-8(%rbp), %rdx
	movq	$0, 32(%rsp)
	movabsq	$-9223372036854775805, %r9
	movq	%rcx, %r8
	movq	%rax, %rcx
	call	*%r10
.LVL13:
	.loc 1 187 7 discriminator 1
	movabsq	$-9223372036854775794, %rdx
	cmpq	%rdx, %rax
	jne	.L41
	.loc 1 189 3
	movl	$3, %ecx
	call	SetColor
	.loc 1 190 3
	leaq	.LC12(%rip), %rax
	movq	%rax, %rcx
	call	Print
.L41:
	.loc 1 193 12
	movq	-8(%rbp), %rax
	.loc 1 194 1
	addq	$64, %rsp
	popq	%rbp
	.cfi_restore 6
	.cfi_def_cfa 7, 8
	ret
	.cfi_endproc
.LFE15:
	.seh_endproc
	.globl	ENTRY_POINT
	.bss
	.align 4
ENTRY_POINT:
	.space 4
	.globl	OSBuffer_Handle
	.align 8
OSBuffer_Handle:
	.space 8
	.section .rdata,"dr"
	.align 8
.LC13:
	.ascii "F\0u\0n\0c\0t\0i\0o\0n\0 \0r\0e\0a\0d\0F\0i\0l\0e\0 \0S\0t\0a\0r\0t\0e\0d\0\15\0\12\0\0\0"
	.align 8
.LC14:
	.ascii "F\0i\0l\0e\0h\0a\0n\0d\0l\0e\0 \0n\0o\0t\0 \0n\0u\0l\0l\0\15\0\12\0\0\0"
	.align 8
.LC15:
	.ascii "A\0l\0l\0o\0c\0a\0t\0i\0n\0g\0 \0P\0o\0o\0l\0 \0F\0A\0I\0L\0E\0D\0\15\0\12\0\0\0"
	.align 8
.LC16:
	.ascii "R\0e\0a\0d\0i\0n\0g\0 \0F\0i\0l\0e\0 \0F\0A\0I\0L\0E\0D\0\15\0\12\0\0\0"
	.align 8
.LC17:
	.ascii " \0 \0 \0 \0 \0 \0 \0 \0 \0 \0D\0y\0n\0a\0m\0i\0c\0 \0F\0i\0l\0e\0 \0S\0i\0g\0n\0a\0t\0u\0r\0e\0\15\0\12\0\0\0"
	.align 8
.LC18:
	.ascii " \0 \0 \0 \0 \0 \0 \0 \0 \0 \0B\0I\0N\0A\0R\0Y\0 \0-\0 \0"
	.ascii "8\0"
	.ascii "6\0"
	.ascii "6\0"
	.ascii "4\0 \0S\0i\0g\0n\0a\0t\0u\0r\0e\0\15\0\12\0\15\0\12\0\15\0\12\0\15\0\12\0\0\0"
	.align 2
.LC19:
	.ascii " \0 \0\0\0"
	.align 8
.LC20:
	.ascii " \0 \0\15\0\12\0E\0N\0T\0R\0Y\0 \0P\0O\0I\0N\0T\0 \0:\0 \0\0\0"
	.align 8
.LC21:
	.ascii "E\0L\0F\0 \0-\0 \0"
	.ascii "4\0"
	.ascii "5\0 \0"
	.ascii "4\0C\0 \0"
	.ascii "4\0"
	.ascii "6\0 \0S\0i\0g\0n\0a\0t\0u\0r\0e\0\15\0\12\0\0\0"
	.align 8
.LC22:
	.ascii "A\0d\0d\0 \0y\0o\0u\0r\0 \0o\0w\0n\0 \0c\0o\0d\0e\0 \0+\0 \0t\0h\0e\0 \0E\0L\0F\0 \0H\0e\0a\0d\0e\0r\0 \0f\0i\0l\0e\0 \0t\0o\0 \0m\0a\0k\0e\0 \0t\0h\0i\0s\0 \0w\0o\0r\0k\0.\0\15\0\12\0\0\0"
	.align 8
.LC23:
	.ascii "W\0A\0R\0N\0I\0N\0G\0 \0:\0 \0R\0A\0W\0 \0F\0I\0L\0E\0 \0H\0A\0S\0 \0B\0E\0E\0N\0 \0L\0O\0A\0D\0E\0D\0 \0-\0 \0N\0o\0 \0S\0i\0g\0n\0a\0t\0u\0r\0e\0 \0D\0E\0T\0E\0C\0T\0E\0D\0\15\0\12\0\0\0"
	.text
	.globl	readFile
	.def	readFile;	.scl	2;	.type	32;	.endef
	.seh_proc	readFile
readFile:
.LFB16:
	.loc 1 200 1
	.cfi_startproc
	pushq	%rbp
	.seh_pushreg	%rbp
	.cfi_def_cfa_offset 16
	.cfi_offset 6, -16
	movq	%rsp, %rbp
	.seh_setframe	%rbp, 0
	.cfi_def_cfa_register 6
	subq	$80, %rsp
	.seh_stackalloc	80
	.seh_endprologue
	movq	%rcx, 16(%rbp)
	.loc 1 203 37
	movq	16(%rbp), %rax
	movq	%rax, %rcx
	call	getFile
	movq	%rax, -8(%rbp)
	.loc 1 204 2
	leaq	.LC13(%rip), %rax
	movq	%rax, %rcx
	call	Print
	.loc 1 205 7
	cmpq	$0, -8(%rbp)
	je	.L50
.LBB6:
	.loc 1 207 3
	leaq	.LC14(%rip), %rax
	movq	%rax, %rcx
	call	Print
	.loc 1 209 11
	movq	$0, -16(%rbp)
	.loc 1 210 13
	movq	-8(%rbp), %rax
	movq	56(%rax), %r8
	.loc 1 210 3
	movq	-8(%rbp), %rax
	movq	$-1, %rdx
	movq	%rax, %rcx
	call	*%r8
.LVL14:
	.loc 1 211 13
	movq	-8(%rbp), %rax
	movq	48(%rax), %r8
	.loc 1 211 3
	movq	-16(%rbp), %rdx
	movq	-8(%rbp), %rax
	movq	%rax, %rcx
	call	*%r8
.LVL15:
	.loc 1 212 13
	movq	-8(%rbp), %rax
	movq	56(%rax), %r8
	.loc 1 212 3
	movq	-8(%rbp), %rax
	movl	$0, %edx
	movq	%rax, %rcx
	call	*%r8
.LVL16:
	.loc 1 214 18
	movq	SystemTable(%rip), %rax
	movq	96(%rax), %rax
	.loc 1 214 32
	movq	64(%rax), %r9
	.loc 1 214 7
	movq	-16(%rbp), %rax
	movq	(%rax), %rax
	leaq	OSBuffer_Handle(%rip), %r8
	movq	%rax, %rdx
	movl	$2, %ecx
	call	*%r9
.LVL17:
	.loc 1 214 5 discriminator 1
	testq	%rax, %rax
	je	.L45
	.loc 1 216 4
	movl	$6, %ecx
	call	SetColor
	.loc 1 217 4
	leaq	.LC15(%rip), %rax
	movq	%rax, %rcx
	call	Print
.L45:
	.loc 1 220 13
	movq	-8(%rbp), %rax
	movq	56(%rax), %r8
	.loc 1 220 3
	movq	-8(%rbp), %rax
	movl	$0, %edx
	movq	%rax, %rcx
	call	*%r8
.LVL18:
	.loc 1 222 23
	movq	-8(%rbp), %rax
	movq	32(%rax), %r9
	.loc 1 222 13
	movq	OSBuffer_Handle(%rip), %rcx
	movq	-16(%rbp), %rdx
	movq	-8(%rbp), %rax
	movq	%rcx, %r8
	movq	%rax, %rcx
	call	*%r9
.LVL19:
	.loc 1 222 11 discriminator 1
	testq	%rax, %rax
	je	.L46
	.loc 1 224 4
	movl	$6, %ecx
	call	SetColor
	.loc 1 225 4
	leaq	.LC16(%rip), %rax
	movq	%rax, %rcx
	call	Print
.L46:
	.loc 1 228 3
	movl	$11, %ecx
	call	SetColor
	.loc 1 229 3
	leaq	.LC17(%rip), %rax
	movq	%rax, %rcx
	call	Print
	.loc 1 230 3
	movl	$6, %ecx
	call	SetColor
	.loc 1 231 10
	movq	OSBuffer_Handle(%rip), %rax
	movq	%rax, -24(%rbp)
	.loc 1 237 6
	movq	-24(%rbp), %rax
	movzbl	(%rax), %eax
	movb	%al, -25(%rbp)
	.loc 1 238 8
	addq	$1, -24(%rbp)
	.loc 1 239 6
	movq	-24(%rbp), %rax
	movzbl	(%rax), %eax
	movb	%al, -26(%rbp)
	.loc 1 240 8
	addq	$1, -24(%rbp)
	.loc 1 241 6
	movq	-24(%rbp), %rax
	movzbl	(%rax), %eax
	movb	%al, -27(%rbp)
	.loc 1 242 8
	addq	$1, -24(%rbp)
	.loc 1 243 6
	movq	-24(%rbp), %rax
	movzbl	(%rax), %eax
	movb	%al, -28(%rbp)
	.loc 1 245 5
	cmpb	$100, -25(%rbp)
	jne	.L47
	.loc 1 245 16 discriminator 1
	cmpb	$-122, -26(%rbp)
	jne	.L47
.LBB7:
	.loc 1 247 4
	leaq	.LC18(%rip), %rax
	movq	%rax, %rcx
	call	Print
	.loc 1 248 4
	movl	$15, %ecx
	call	SetColor
	.loc 1 249 9
	addq	$37, -24(%rbp)
	.loc 1 250 7
	movq	-24(%rbp), %rax
	movzbl	(%rax), %eax
	movb	%al, -25(%rbp)
	.loc 1 251 9
	addq	$1, -24(%rbp)
	.loc 1 252 7
	movq	-24(%rbp), %rax
	movzbl	(%rax), %eax
	movb	%al, -26(%rbp)
	.loc 1 253 9
	addq	$1, -24(%rbp)
	.loc 1 254 7
	movq	-24(%rbp), %rax
	movzbl	(%rax), %eax
	movb	%al, -27(%rbp)
	.loc 1 255 9
	addq	$1, -24(%rbp)
	.loc 1 256 7
	movq	-24(%rbp), %rax
	movzbl	(%rax), %eax
	movb	%al, -28(%rbp)
	.loc 1 259 5
	movzbl	-25(%rbp), %eax
	leaq	-32(%rbp), %rdx
	movl	$16, %r8d
	movl	%eax, %ecx
	call	itoa
	.loc 1 260 5
	leaq	-32(%rbp), %rax
	movq	%rax, %rcx
	call	Print
	.loc 1 261 5
	leaq	.LC19(%rip), %rax
	movq	%rax, %rcx
	call	Print
	.loc 1 263 5
	movzbl	-26(%rbp), %eax
	leaq	-32(%rbp), %rdx
	movl	$16, %r8d
	movl	%eax, %ecx
	call	itoa
	.loc 1 264 5
	leaq	-32(%rbp), %rax
	movq	%rax, %rcx
	call	Print
	.loc 1 265 5
	leaq	.LC19(%rip), %rax
	movq	%rax, %rcx
	call	Print
	.loc 1 267 5
	movzbl	-27(%rbp), %eax
	leaq	-32(%rbp), %rdx
	movl	$16, %r8d
	movl	%eax, %ecx
	call	itoa
	.loc 1 268 5
	leaq	-32(%rbp), %rax
	movq	%rax, %rcx
	call	Print
	.loc 1 269 5
	leaq	.LC19(%rip), %rax
	movq	%rax, %rcx
	call	Print
	.loc 1 271 5
	movzbl	-28(%rbp), %eax
	leaq	-32(%rbp), %rdx
	movl	$16, %r8d
	movl	%eax, %ecx
	call	itoa
	.loc 1 272 5
	leaq	-32(%rbp), %rax
	movq	%rax, %rcx
	call	Print
	.loc 1 273 5
	movl	$6, %ecx
	call	SetColor
	.loc 1 274 5
	leaq	.LC20(%rip), %rax
	movq	%rax, %rcx
	call	Print
	.loc 1 275 5
	movl	$2, %ecx
	call	SetColor
	.loc 1 277 35
	movzbl	-28(%rbp), %eax
	sall	$24, %eax
	movl	%eax, %edx
	.loc 1 277 48
	movzbl	-27(%rbp), %eax
	sall	$16, %eax
	.loc 1 277 42
	orl	%eax, %edx
	.loc 1 277 61
	movzbl	-26(%rbp), %eax
	sall	$8, %eax
	.loc 1 277 55
	orl	%eax, %edx
	.loc 1 277 67
	movzbl	-25(%rbp), %eax
	orl	%edx, %eax
	.loc 1 277 29
	movl	%eax, ENTRY_POINT(%rip)
	.loc 1 280 5
	movl	ENTRY_POINT(%rip), %eax
	leaq	-42(%rbp), %rdx
	movl	$10, %r8d
	movl	%eax, %ecx
	call	itoa
	.loc 1 281 5
	leaq	-42(%rbp), %rax
	movq	%rax, %rcx
	call	Print
	.loc 1 282 5
	leaq	.LC19(%rip), %rax
	movq	%rax, %rcx
	call	Print
.LBE7:
	.loc 1 246 3
	jmp	.L48
.L47:
	.loc 1 284 10
	cmpb	$69, -26(%rbp)
	jne	.L49
	.loc 1 284 20 discriminator 1
	cmpb	$76, -27(%rbp)
	jne	.L49
	.loc 1 284 32 discriminator 2
	cmpb	$70, -28(%rbp)
	jne	.L49
	.loc 1 286 4
	leaq	.LC21(%rip), %rax
	movq	%rax, %rcx
	call	Print
	.loc 1 287 4
	leaq	.LC22(%rip), %rax
	movq	%rax, %rcx
	call	Print
	jmp	.L48
.L49:
	.loc 1 289 16
	movl	$0, ENTRY_POINT(%rip)
	.loc 1 290 4
	leaq	.LC23(%rip), %rax
	movq	%rax, %rcx
	call	Print
.L48:
	.loc 1 293 9
	movq	-8(%rbp), %rax
	movq	%rax, %rcx
	call	closeFile
	.loc 1 294 26
	movq	-16(%rbp), %rax
	movq	(%rax), %rax
	.loc 1 294 24
	movq	%rax, 28+bi(%rip)
.L50:
.LBE6:
	.loc 1 296 1
	nop
	addq	$80, %rsp
	popq	%rbp
	.cfi_restore 6
	.cfi_def_cfa 7, 8
	ret
	.cfi_endproc
.LFE16:
	.seh_endproc
	.section .rdata,"dr"
	.align 8
.LC24:
	.ascii "D\0e\0l\0e\0t\0i\0n\0g\0 \0D\0i\0r\0e\0c\0t\0o\0r\0y\0 \0F\0A\0I\0L\0E\0D\0\15\0\12\0\0\0"
	.text
	.globl	removeDir
	.def	removeDir;	.scl	2;	.type	32;	.endef
	.seh_proc	removeDir
removeDir:
.LFB17:
	.loc 1 299 1
	.cfi_startproc
	pushq	%rbp
	.seh_pushreg	%rbp
	.cfi_def_cfa_offset 16
	.cfi_offset 6, -16
	movq	%rsp, %rbp
	.seh_setframe	%rbp, 0
	.cfi_def_cfa_register 6
	subq	$48, %rsp
	.seh_stackalloc	48
	.seh_endprologue
	movq	%rcx, 16(%rbp)
	.loc 1 300 34
	movq	16(%rbp), %rax
	movq	%rax, %rcx
	call	getDir
	movq	%rax, -8(%rbp)
	.loc 1 301 4
	cmpq	$0, -8(%rbp)
	je	.L53
	.loc 1 303 17
	movq	-8(%rbp), %rax
	movq	24(%rax), %rdx
	.loc 1 303 7
	movq	-8(%rbp), %rax
	movq	%rax, %rcx
	call	*%rdx
.LVL20:
	.loc 1 303 5 discriminator 1
	testq	%rax, %rax
	je	.L53
	.loc 1 305 4
	movl	$6, %ecx
	call	SetColor
	.loc 1 306 7
	leaq	.LC24(%rip), %rax
	movq	%rax, %rcx
	call	Print
.L53:
	.loc 1 309 1
	nop
	addq	$48, %rsp
	popq	%rbp
	.cfi_restore 6
	.cfi_def_cfa 7, 8
	ret
	.cfi_endproc
.LFE17:
	.seh_endproc
	.section .rdata,"dr"
	.align 8
.LC25:
	.ascii "C\0r\0e\0a\0t\0i\0n\0g\0 \0D\0i\0r\0e\0c\0t\0o\0r\0y\0 \0F\0A\0I\0L\0E\0D\0\15\0\12\0\0\0"
	.text
	.globl	makeDir
	.def	makeDir;	.scl	2;	.type	32;	.endef
	.seh_proc	makeDir
makeDir:
.LFB18:
	.loc 1 312 1
	.cfi_startproc
	pushq	%rbp
	.seh_pushreg	%rbp
	.cfi_def_cfa_offset 16
	.cfi_offset 6, -16
	movq	%rsp, %rbp
	.seh_setframe	%rbp, 0
	.cfi_def_cfa_register 6
	subq	$64, %rsp
	.seh_stackalloc	64
	.seh_endprologue
	movq	%rcx, 16(%rbp)
	.loc 1 313 24
	movq	$0, -8(%rbp)
	.loc 1 315 15
	movq	RootFS(%rip), %rax
	movq	8(%rax), %r10
	.loc 1 315 9
	movq	RootFS(%rip), %rax
	movq	16(%rbp), %rcx
	leaq	-8(%rbp), %rdx
	movq	$16, 32(%rsp)
	movabsq	$-9223372036854775805, %r9
	movq	%rcx, %r8
	movq	%rax, %rcx
	call	*%r10
.LVL21:
	.loc 1 315 7 discriminator 1
	testq	%rax, %rax
	je	.L55
	.loc 1 317 3
	movl	$6, %ecx
	call	SetColor
	.loc 1 318 3
	leaq	.LC25(%rip), %rax
	movq	%rax, %rcx
	call	Print
.L55:
	.loc 1 320 2
	movq	-8(%rbp), %rax
	movq	%rax, %rcx
	call	closeDir
	.loc 1 321 1
	nop
	addq	$64, %rsp
	popq	%rbp
	.cfi_restore 6
	.cfi_def_cfa 7, 8
	ret
	.cfi_endproc
.LFE18:
	.seh_endproc
	.section .rdata,"dr"
	.align 8
.LC26:
	.ascii "D\0e\0l\0e\0t\0i\0n\0g\0 \0F\0i\0l\0e\0 \0F\0A\0I\0L\0E\0D\0\15\0\12\0\0\0"
	.text
	.globl	deleteFile
	.def	deleteFile;	.scl	2;	.type	32;	.endef
	.seh_proc	deleteFile
deleteFile:
.LFB19:
	.loc 1 324 1
	.cfi_startproc
	pushq	%rbp
	.seh_pushreg	%rbp
	.cfi_def_cfa_offset 16
	.cfi_offset 6, -16
	movq	%rsp, %rbp
	.seh_setframe	%rbp, 0
	.cfi_def_cfa_register 6
	subq	$48, %rsp
	.seh_stackalloc	48
	.seh_endprologue
	movq	%rcx, 16(%rbp)
	.loc 1 325 34
	movq	16(%rbp), %rax
	movq	%rax, %rcx
	call	getFile
	movq	%rax, -8(%rbp)
	.loc 1 326 4
	cmpq	$0, -8(%rbp)
	je	.L59
	.loc 1 328 17
	movq	-8(%rbp), %rax
	movq	24(%rax), %rdx
	.loc 1 328 7
	movq	-8(%rbp), %rax
	movq	%rax, %rcx
	call	*%rdx
.LVL22:
	.loc 1 328 5 discriminator 1
	testq	%rax, %rax
	je	.L58
	.loc 1 329 3
	movl	$6, %ecx
	call	SetColor
.L58:
	.loc 1 330 3
	leaq	.LC26(%rip), %rax
	movq	%rax, %rcx
	call	Print
.L59:
	.loc 1 332 1
	nop
	addq	$48, %rsp
	popq	%rbp
	.cfi_restore 6
	.cfi_def_cfa 7, 8
	ret
	.cfi_endproc
.LFE19:
	.seh_endproc
	.section .rdata,"dr"
	.align 8
.LC27:
	.ascii "W\0r\0i\0t\0i\0n\0g\0 \0t\0o\0 \0F\0i\0l\0e\0 \0F\0A\0I\0L\0E\0D\0\15\0\12\0\0\0"
	.text
	.globl	WriteToFile
	.def	WriteToFile;	.scl	2;	.type	32;	.endef
	.seh_proc	WriteToFile
WriteToFile:
.LFB20:
	.loc 1 335 1
	.cfi_startproc
	pushq	%rbp
	.seh_pushreg	%rbp
	.cfi_def_cfa_offset 16
	.cfi_offset 6, -16
	movq	%rsp, %rbp
	.seh_setframe	%rbp, 0
	.cfi_def_cfa_register 6
	subq	$48, %rsp
	.seh_stackalloc	48
	.seh_endprologue
	movq	%rcx, 16(%rbp)
	movq	%rdx, 24(%rbp)
	.loc 1 336 20
	movq	16(%rbp), %rax
	movq	%rax, %rcx
	call	strlen
	.loc 1 336 9 discriminator 1
	movq	%rax, -16(%rbp)
	.loc 1 337 39
	movq	24(%rbp), %rax
	movq	%rax, %rcx
	call	createFile
	movq	%rax, -8(%rbp)
	.loc 1 338 4
	cmpq	$0, -8(%rbp)
	je	.L63
	.loc 1 340 22
	movq	-8(%rbp), %rax
	movq	40(%rax), %r9
	.loc 1 340 7
	movq	16(%rbp), %rcx
	leaq	-16(%rbp), %rdx
	movq	-8(%rbp), %rax
	movq	%rcx, %r8
	movq	%rax, %rcx
	call	*%r9
.LVL23:
	.loc 1 340 5 discriminator 1
	testq	%rax, %rax
	je	.L62
	.loc 1 342 4
	movl	$6, %ecx
	call	SetColor
	.loc 1 343 4
	leaq	.LC27(%rip), %rax
	movq	%rax, %rcx
	call	Print
.L62:
	.loc 1 345 3
	movq	-8(%rbp), %rax
	movq	%rax, %rcx
	call	closeFile
.L63:
	.loc 1 347 1
	nop
	addq	$48, %rsp
	popq	%rbp
	.cfi_restore 6
	.cfi_def_cfa 7, 8
	ret
	.cfi_endproc
.LFE20:
	.seh_endproc
	.section .rdata,"dr"
	.align 8
.LC28:
	.ascii " \0 \0 \0 \0 \0 \0 \0 \0 \0 \0D\0u\0r\0i\0n\0g\0 \0t\0h\0e\0 \0t\0e\0s\0t\0i\0n\0g\0 \0p\0h\0a\0s\0e\0 \0w\0e\0 \0w\0i\0l\0l\0 \0u\0s\0e\0 \0t\0h\0e\0 \0d\0e\0f\0a\0u\0l\0t\0 \0G\0O\0P\0.\0\15\0\12\0\0\0"
	.text
	.globl	InitializeGOP
	.def	InitializeGOP;	.scl	2;	.type	32;	.endef
	.seh_proc	InitializeGOP
InitializeGOP:
.LFB21:
	.loc 1 350 1
	.cfi_startproc
	pushq	%rbp
	.seh_pushreg	%rbp
	.cfi_def_cfa_offset 16
	.cfi_offset 6, -16
	movq	%rsp, %rbp
	.seh_setframe	%rbp, 0
	.cfi_def_cfa_register 6
	subq	$64, %rsp
	.seh_stackalloc	64
	.seh_endprologue
	.loc 1 353 16
	movq	SystemTable(%rip), %rax
	movq	96(%rax), %rax
	.loc 1 353 30
	movq	320(%rax), %rax
	.loc 1 353 5
	leaq	gop(%rip), %r8
	movl	$0, %edx
	leaq	EFI_GRAPHICS_OUTPUT_PROTOCOL_GUID(%rip), %rcx
	call	*%rax
.LVL24:
	.loc 1 355 9
	movl	$9000000, -4(%rbp)
	.loc 1 356 27
	movq	gop(%rip), %rax
	movq	24(%rax), %rax
	.loc 1 356 8
	movq	16(%rax), %rax
	movq	%rax, -16(%rbp)
	.loc 1 357 33
	movq	gop(%rip), %rax
	movq	24(%rax), %rax
	.loc 1 357 9
	movl	(%rax), %eax
	movl	%eax, -20(%rbp)
	.loc 1 377 3
	movl	$12, %ecx
	call	SetColor
	.loc 1 379 3
	leaq	.LC28(%rip), %rax
	movq	%rax, %rcx
	call	Print
	.loc 1 380 23
	movq	gop(%rip), %rax
	movq	24(%rax), %rax
	.loc 1 380 29
	movq	24(%rax), %rax
	.loc 1 380 18
	movq	%rax, bi(%rip)
	.loc 1 381 22
	movq	gop(%rip), %rax
	movq	24(%rax), %rax
	.loc 1 381 28
	movq	32(%rax), %rax
	.loc 1 381 17
	movq	%rax, 8+bi(%rip)
	.loc 1 382 23
	movq	gop(%rip), %rax
	movq	24(%rax), %rax
	.loc 1 382 29
	movq	8(%rax), %rax
	.loc 1 382 35
	movl	4(%rax), %eax
	.loc 1 382 18
	movl	%eax, 16+bi(%rip)
	.loc 1 383 24
	movq	gop(%rip), %rax
	movq	24(%rax), %rax
	.loc 1 383 30
	movq	8(%rax), %rax
	.loc 1 383 36
	movl	8(%rax), %eax
	.loc 1 383 19
	movl	%eax, 20+bi(%rip)
	.loc 1 384 29
	movq	gop(%rip), %rax
	movq	24(%rax), %rax
	.loc 1 384 35
	movq	8(%rax), %rax
	.loc 1 384 41
	movl	32(%rax), %eax
	.loc 1 384 24
	movl	%eax, 24+bi(%rip)
	.loc 1 408 1
	nop
	addq	$64, %rsp
	popq	%rbp
	.cfi_restore 6
	.cfi_def_cfa 7, 8
	ret
	.cfi_endproc
.LFE21:
	.seh_endproc
	.globl	InitializeSystem
	.def	InitializeSystem;	.scl	2;	.type	32;	.endef
	.seh_proc	InitializeSystem
InitializeSystem:
.LFB22:
	.loc 1 411 1
	.cfi_startproc
	pushq	%rbp
	.seh_pushreg	%rbp
	.cfi_def_cfa_offset 16
	.cfi_offset 6, -16
	movq	%rsp, %rbp
	.seh_setframe	%rbp, 0
	.cfi_def_cfa_register 6
	subq	$32, %rsp
	.seh_stackalloc	32
	.seh_endprologue
	.loc 1 412 5
	call	ResetScreen
	.loc 1 413 5
	call	InitializeGOP
	.loc 1 414 2
	call	InitializeFILESYSTEM
	.loc 1 415 1
	nop
	addq	$32, %rsp
	popq	%rbp
	.cfi_restore 6
	.cfi_def_cfa 7, 8
	ret
	.cfi_endproc
.LFE22:
	.seh_endproc
	.globl	biStruct
	.section	.text,"w"
	.align 8
biStruct:
	.space 8
	.section .rdata,"dr"
	.align 8
.LC29:
	.ascii "M\0A\0I\0N\0 \0F\0U\0N\0C\0T\0I\0O\0N\0 \0C\0A\0L\0L\0E\0D\0\15\0\12\0\0\0"
	.text
	.globl	main
	.def	main;	.scl	2;	.type	32;	.endef
	.seh_proc	main
main:
.LFB23:
	.file 2 "loader/loader.c"
	.loc 2 54 1
	.cfi_startproc
	pushq	%rbp
	.seh_pushreg	%rbp
	.cfi_def_cfa_offset 16
	.cfi_offset 6, -16
	movq	%rsp, %rbp
	.seh_setframe	%rbp, 0
	.cfi_def_cfa_register 6
	subq	$48, %rsp
	.seh_stackalloc	48
	.seh_endprologue
	movq	%rcx, 16(%rbp)
	.loc 2 54 1
	call	__main
	.loc 2 55 11
	movq	16(%rbp), %rax
	movq	%rax, biStruct(%rip)
	.loc 2 56 10
	movq	biStruct(%rip), %rax
	.loc 2 56 28
	movq	16(%rbp), %rdx
	movq	(%rdx), %rdx
	.loc 2 56 24
	movq	%rdx, (%rax)
	.loc 2 57 2
	leaq	.LC29(%rip), %rax
	movq	%rax, %rcx
	call	Print
	.loc 2 58 2
	movl	$-23296, 32(%rsp)
	movl	$150, %r9d
	movl	$150, %r8d
	movl	$0, %edx
	movl	$0, %ecx
	call	CreateBufferFilledBox
.L67:
	.loc 2 60 11 discriminator 1
/APP
 # 60 "loader/loader.c" 1
	hlt
 # 0 "" 2
/NO_APP
	jmp	.L67
	.cfi_endproc
.LFE23:
	.seh_endproc
	.globl	CreateBufferFilledBox
	.def	CreateBufferFilledBox;	.scl	2;	.type	32;	.endef
	.seh_proc	CreateBufferFilledBox
CreateBufferFilledBox:
.LFB24:
	.loc 2 64 1
	.cfi_startproc
	pushq	%rbp
	.seh_pushreg	%rbp
	.cfi_def_cfa_offset 16
	.cfi_offset 6, -16
	movq	%rsp, %rbp
	.seh_setframe	%rbp, 0
	.cfi_def_cfa_register 6
	subq	$16, %rsp
	.seh_stackalloc	16
	.seh_endprologue
	movl	%ecx, 16(%rbp)
	movl	%edx, 24(%rbp)
	movl	%r8d, 32(%rbp)
	movl	%r9d, 40(%rbp)
	.loc 2 66 14
	movl	24(%rbp), %eax
	movl	%eax, -8(%rbp)
	.loc 2 67 14
	movl	16(%rbp), %edx
	movl	32(%rbp), %eax
	addl	%edx, %eax
	movl	%eax, -12(%rbp)
	.loc 2 68 14
	movl	24(%rbp), %edx
	movl	40(%rbp), %eax
	addl	%edx, %eax
	movl	%eax, -16(%rbp)
	.loc 2 70 11
	movl	24(%rbp), %eax
	movl	%eax, -8(%rbp)
	.loc 2 70 5
	jmp	.L69
.L72:
	.loc 2 72 15
	movl	16(%rbp), %eax
	movl	%eax, -4(%rbp)
	.loc 2 72 9
	jmp	.L70
.L71:
	.loc 2 74 32
	movq	biStruct(%rip), %rax
	movl	24(%rax), %eax
	.loc 2 74 22
	imull	-8(%rbp), %eax
	movl	%eax, %edx
	.loc 2 74 17
	movl	-4(%rbp), %eax
	addl	%edx, %eax
	movl	%eax, %eax
	.loc 2 74 53
	leaq	0(,%rax,4), %rdx
	.loc 2 74 75
	movq	biStruct(%rip), %rax
	movq	(%rax), %rax
	.loc 2 74 53
	addq	%rdx, %rax
	movq	%rax, %rdx
	.loc 2 74 91
	movl	48(%rbp), %eax
	movl	%eax, (%rdx)
	.loc 2 72 36 discriminator 3
	addl	$1, -4(%rbp)
.L70:
	.loc 2 72 25 discriminator 1
	movl	-4(%rbp), %eax
	cmpl	%eax, -12(%rbp)
	jnb	.L71
	.loc 2 70 33 discriminator 2
	addl	$1, -8(%rbp)
.L69:
	.loc 2 70 21 discriminator 1
	movl	-8(%rbp), %eax
	cmpl	%eax, -16(%rbp)
	jnb	.L72
	.loc 2 77 1
	nop
	nop
	addq	$16, %rsp
	popq	%rbp
	.cfi_restore 6
	.cfi_def_cfa 7, 8
	ret
	.cfi_endproc
.LFE24:
	.seh_endproc
.Letext0:
	.file 3 "C:/msys64/mingw64/lib/gcc/x86_64-w64-mingw32/14.1.0/include/stdint-gcc.h"
	.file 4 "loader/../efi.h"