	.file	"loader.c"
	.text
.Ltext0:
	.cfi_sections	.debug_frame
	.file 0 "E://wf//src//uefi//UEFI-Tuts//src//tutorial 24" "loader/loader.c"
	.globl	main
	.def	main;	.scl	2;	.type	32;	.endef
	.seh_proc	main
main:
.LFB0:
	.file 1 "loader/loader.c"
	.loc 1 38 1
	.cfi_startproc
	pushq	%rbp
	.seh_pushreg	%rbp
	.cfi_def_cfa_offset 16
	.cfi_offset 6, -16
	movq	%rsp, %rbp
	.seh_setframe	%rbp, 0
	.cfi_def_cfa_register 6
	subq	$80, %rsp
	.seh_stackalloc	80
	.seh_endprologue
	movl	%ecx, 16(%rbp)
	movq	%rdx, 24(%rbp)
	.loc 1 38 1
	call	__main
	.loc 1 39 13
	movq	24(%rbp), %rax
	movq	%rax, -8(%rbp)
	.loc 1 41 13
	movq	-8(%rbp), %rax
	movl	(%rax), %eax
	.loc 1 41 4
	cmpl	$31337, %eax
	jne	.L2
.LBB2:
	.loc 1 43 41
	movl	$-23296, %ecx
	call	SetGraphicsColor
	movq	%rax, -24(%rbp)
	.loc 1 44 3
	movq	-8(%rbp), %rax
	movq	%rax, 40(%rsp)
	movq	-24(%rbp), %rax
	movq	%rax, 32(%rsp)
	movl	$150, %r9d
	movl	$150, %r8d
	movl	$1, %edx
	movl	$1, %ecx
	call	CreateBufferFilledBox
.LBE2:
	jmp	.L4
.L2:
.LBB3:
	.loc 1 46 41
	movl	$-16711936, %ecx
	call	SetGraphicsColor
	movq	%rax, -16(%rbp)
	.loc 1 47 3
	movq	-8(%rbp), %rax
	movq	%rax, 40(%rsp)
	movq	-16(%rbp), %rax
	movq	%rax, 32(%rsp)
	movl	$150, %r9d
	movl	$150, %r8d
	movl	$1, %edx
	movl	$1, %ecx
	call	CreateBufferFilledBox
.L4:
.LBE3:
	.loc 1 50 11 discriminator 1
/APP
 # 50 "loader/loader.c" 1
	hlt
 # 0 "" 2
/NO_APP
	jmp	.L4
	.cfi_endproc
.LFE0:
	.seh_endproc
	.globl	SetGraphicsColor
	.def	SetGraphicsColor;	.scl	2;	.type	32;	.endef
	.seh_proc	SetGraphicsColor
SetGraphicsColor:
.LFB1:
	.loc 1 54 1
	.cfi_startproc
	pushq	%rbp
	.seh_pushreg	%rbp
	.cfi_def_cfa_offset 16
	.cfi_offset 6, -16
	movq	%rsp, %rbp
	.seh_setframe	%rbp, 0
	.cfi_def_cfa_register 6
	subq	$16, %rsp
	.seh_stackalloc	16
	.seh_endprologue
	movl	%ecx, 16(%rbp)
	.loc 1 55 27
	movq	$0, -8(%rbp)
	.loc 1 56 27
	movl	16(%rbp), %eax
	shrl	$24, %eax
	.loc 1 56 19
	movl	%eax, %edx
	movq	-8(%rbp), %rax
	movb	%dl, 3(%rax)
	.loc 1 57 25
	movl	16(%rbp), %eax
	shrl	$16, %eax
	.loc 1 57 17
	movl	%eax, %edx
	movq	-8(%rbp), %rax
	movb	%dl, 2(%rax)
	.loc 1 58 27
	movl	16(%rbp), %eax
	shrl	$8, %eax
	.loc 1 58 19
	movl	%eax, %edx
	movq	-8(%rbp), %rax
	movb	%dl, 1(%rax)
	.loc 1 59 18
	movl	16(%rbp), %eax
	movl	%eax, %edx
	movq	-8(%rbp), %rax
	movb	%dl, (%rax)
	.loc 1 60 12
	movq	-8(%rbp), %rax
	.loc 1 61 1
	addq	$16, %rsp
	popq	%rbp
	.cfi_restore 6
	.cfi_def_cfa 7, 8
	ret
	.cfi_endproc
.LFE1:
	.seh_endproc
	.globl	CreateBufferFilledBox
	.def	CreateBufferFilledBox;	.scl	2;	.type	32;	.endef
	.seh_proc	CreateBufferFilledBox
CreateBufferFilledBox:
.LFB2:
	.loc 1 64 1
	.cfi_startproc
	pushq	%rbp
	.seh_pushreg	%rbp
	.cfi_def_cfa_offset 16
	.cfi_offset 6, -16
	movq	%rsp, %rbp
	.seh_setframe	%rbp, 0
	.cfi_def_cfa_register 6
	subq	$16, %rsp
	.seh_stackalloc	16
	.seh_endprologue
	movl	%ecx, 16(%rbp)
	movl	%edx, 24(%rbp)
	movl	%r8d, 32(%rbp)
	movl	%r9d, 40(%rbp)
	.loc 1 66 14
	movl	24(%rbp), %eax
	movl	%eax, -8(%rbp)
	.loc 1 67 14
	movl	16(%rbp), %edx
	movl	32(%rbp), %eax
	addl	%edx, %eax
	movl	%eax, -12(%rbp)
	.loc 1 68 14
	movl	24(%rbp), %edx
	movl	40(%rbp), %eax
	addl	%edx, %eax
	movl	%eax, -16(%rbp)
	.loc 1 70 11
	movl	24(%rbp), %eax
	movl	%eax, -8(%rbp)
	.loc 1 70 5
	jmp	.L8
.L11:
	.loc 1 72 15
	movl	16(%rbp), %eax
	movl	%eax, -4(%rbp)
	.loc 1 72 9
	jmp	.L9
.L10:
	.loc 1 74 65
	movq	56(%rbp), %rax
	movq	8(%rax), %rdx
	.loc 1 74 27
	movq	56(%rbp), %rax
	movl	32(%rax), %eax
	.loc 1 74 22
	imull	-8(%rbp), %eax
	movl	%eax, %ecx
	.loc 1 74 17
	movl	-4(%rbp), %eax
	addl	%ecx, %eax
	movl	%eax, %eax
	.loc 1 74 48
	salq	$2, %rax
	addq	%rax, %rdx
	.loc 1 74 83
	movq	48(%rbp), %rax
	movl	(%rax), %eax
	.loc 1 74 81
	movl	%eax, (%rdx)
	.loc 1 72 36 discriminator 3
	addl	$1, -4(%rbp)
.L9:
	.loc 1 72 25 discriminator 1
	movl	-4(%rbp), %eax
	cmpl	%eax, -12(%rbp)
	jnb	.L10
	.loc 1 70 33 discriminator 2
	addl	$1, -8(%rbp)
.L8:
	.loc 1 70 21 discriminator 1
	movl	-8(%rbp), %eax
	cmpl	%eax, -16(%rbp)
	jnb	.L11
	.loc 1 77 1
	nop
	nop
	addq	$16, %rsp
	popq	%rbp
	.cfi_restore 6
	.cfi_def_cfa 7, 8
	ret
	.cfi_endproc
.LFE2:
	.seh_endproc
.Letext0:
	.file 2 "loader/stdint.h"